
tri86_oldBL.elf:     file format elf32-msp430

SYMBOL TABLE:
0000ffd8 l    d  .hware_version	00000000 .hware_version
00008010 l    d  .text	00000000 .text
00001100 l    d  .data	00000000 .data
00001126 l    d  .bss	00000000 .bss
0000efe0 l    d  .vectors	00000000 .vectors
00000000 l    d  .stab	00000000 .stab
00000000 l    d  .stabstr	00000000 .stabstr
00000000 l    df *ABS*	00000000 variant.c
00000130 l       *ABS*	00000000 __MPY
00000132 l       *ABS*	00000000 __MPYS
00000134 l       *ABS*	00000000 __MAC
00000136 l       *ABS*	00000000 __MACS
00000138 l       *ABS*	00000000 __OP2
0000013a l       *ABS*	00000000 __RESLO
0000013c l       *ABS*	00000000 __RESHI
0000013e l       *ABS*	00000000 __SUMEXT
00000130 l       *ABS*	00000000 MPY
00000132 l       *ABS*	00000000 MPYS
00000134 l       *ABS*	00000000 MAC
00000136 l       *ABS*	00000000 MACS
00000138 l       *ABS*	00000000 OP2
0000013a l       *ABS*	00000000 RESLO
0000013c l       *ABS*	00000000 RESHI
0000013e l       *ABS*	00000000 SUMEXT
00000020 l       *ABS*	00000000 P1IN
00000021 l       *ABS*	00000000 P1OUT
00000022 l       *ABS*	00000000 P1DIR
00000023 l       *ABS*	00000000 P1IFG
00000024 l       *ABS*	00000000 P1IES
00000025 l       *ABS*	00000000 P1IE
00000026 l       *ABS*	00000000 P1SEL
00000027 l       *ABS*	00000000 P1REN
00000028 l       *ABS*	00000000 P2IN
00000029 l       *ABS*	00000000 P2OUT
0000002a l       *ABS*	00000000 P2DIR
0000002b l       *ABS*	00000000 P2IFG
0000002c l       *ABS*	00000000 P2IES
0000002d l       *ABS*	00000000 P2IE
0000002e l       *ABS*	00000000 P2SEL
0000002f l       *ABS*	00000000 P2REN
00000018 l       *ABS*	00000000 P3IN
00000019 l       *ABS*	00000000 P3OUT
0000001a l       *ABS*	00000000 P3DIR
0000001b l       *ABS*	00000000 P3SEL
00000010 l       *ABS*	00000000 P3REN
0000001c l       *ABS*	00000000 P4IN
0000001d l       *ABS*	00000000 P4OUT
0000001e l       *ABS*	00000000 P4DIR
0000001f l       *ABS*	00000000 P4SEL
00000011 l       *ABS*	00000000 P4REN
00000030 l       *ABS*	00000000 P5IN
00000031 l       *ABS*	00000000 P5OUT
00000032 l       *ABS*	00000000 P5DIR
00000033 l       *ABS*	00000000 P5SEL
00000012 l       *ABS*	00000000 P5REN
00000034 l       *ABS*	00000000 P6IN
00000035 l       *ABS*	00000000 P6OUT
00000036 l       *ABS*	00000000 P6DIR
00000037 l       *ABS*	00000000 P6SEL
00000013 l       *ABS*	00000000 P6REN
00000060 l       *ABS*	00000000 UCA0CTL0
00000061 l       *ABS*	00000000 UCA0CTL1
00000062 l       *ABS*	00000000 UCA0BR0
00000063 l       *ABS*	00000000 UCA0BR1
00000064 l       *ABS*	00000000 UCA0MCTL
00000065 l       *ABS*	00000000 UCA0STAT
00000066 l       *ABS*	00000000 UCA0RXBUF
00000067 l       *ABS*	00000000 UCA0TXBUF
0000005d l       *ABS*	00000000 UCA0ABCTL
0000005e l       *ABS*	00000000 UCA0IRTCTL
0000005f l       *ABS*	00000000 UCA0IRRCTL
00000068 l       *ABS*	00000000 UCB0CTL0
00000069 l       *ABS*	00000000 UCB0CTL1
0000006a l       *ABS*	00000000 UCB0BR0
0000006b l       *ABS*	00000000 UCB0BR1
0000006c l       *ABS*	00000000 UCB0I2CIE
0000006d l       *ABS*	00000000 UCB0STAT
0000006e l       *ABS*	00000000 UCB0RXBUF
0000006f l       *ABS*	00000000 UCB0TXBUF
00000118 l       *ABS*	00000000 UCB0I2COA
0000011a l       *ABS*	00000000 UCB0I2CSA
000000d0 l       *ABS*	00000000 UCA1CTL0
000000d1 l       *ABS*	00000000 UCA1CTL1
000000d2 l       *ABS*	00000000 UCA1BR0
000000d3 l       *ABS*	00000000 UCA1BR1
000000d4 l       *ABS*	00000000 UCA1MCTL
000000d5 l       *ABS*	00000000 UCA1STAT
000000d6 l       *ABS*	00000000 UCA1RXBUF
000000d7 l       *ABS*	00000000 UCA1TXBUF
000000cd l       *ABS*	00000000 UCA1ABCTL
000000ce l       *ABS*	00000000 UCA1IRTCTL
000000cf l       *ABS*	00000000 UCA1IRRCTL
000000d8 l       *ABS*	00000000 UCB1CTL0
000000d9 l       *ABS*	00000000 UCB1CTL1
000000da l       *ABS*	00000000 UCB1BR0
000000db l       *ABS*	00000000 UCB1BR1
000000dc l       *ABS*	00000000 UCB1I2CIE
000000dd l       *ABS*	00000000 UCB1STAT
000000de l       *ABS*	00000000 UCB1RXBUF
000000df l       *ABS*	00000000 UCB1TXBUF
0000017c l       *ABS*	00000000 UCB1I2COA
0000017e l       *ABS*	00000000 UCB1I2CSA
00000006 l       *ABS*	00000000 UC1IE
00000007 l       *ABS*	00000000 UC1IFG
0000012e l       *ABS*	00000000 TA0IV
00000160 l       *ABS*	00000000 TA0CTL
00000170 l       *ABS*	00000000 TA0R
00000162 l       *ABS*	00000000 TA0CCTL0
00000164 l       *ABS*	00000000 TA0CCTL1
00000172 l       *ABS*	00000000 TA0CCR0
00000174 l       *ABS*	00000000 TA0CCR1
00000166 l       *ABS*	00000000 TA0CCTL2
00000176 l       *ABS*	00000000 TA0CCR2
0000011e l       *ABS*	00000000 TBIV
00000180 l       *ABS*	00000000 TBCTL
00000190 l       *ABS*	00000000 TBR
00000182 l       *ABS*	00000000 TBCCTL0
00000184 l       *ABS*	00000000 TBCCTL1
00000186 l       *ABS*	00000000 TBCCTL2
00000192 l       *ABS*	00000000 TBCCR0
00000194 l       *ABS*	00000000 TBCCR1
00000196 l       *ABS*	00000000 TBCCR2
00000188 l       *ABS*	00000000 TBCCTL3
0000018a l       *ABS*	00000000 TBCCTL4
0000018c l       *ABS*	00000000 TBCCTL5
0000018e l       *ABS*	00000000 TBCCTL6
00000198 l       *ABS*	00000000 TBCCR3
0000019a l       *ABS*	00000000 TBCCR4
0000019c l       *ABS*	00000000 TBCCR5
0000019e l       *ABS*	00000000 TBCCR6
00000056 l       *ABS*	00000000 DCOCTL
00000057 l       *ABS*	00000000 BCSCTL1
00000058 l       *ABS*	00000000 BCSCTL2
00000053 l       *ABS*	00000000 BCSCTL3
00000128 l       *ABS*	00000000 FCTL1
0000012a l       *ABS*	00000000 FCTL2
0000012c l       *ABS*	00000000 FCTL3
00000059 l       *ABS*	00000000 CACTL1
0000005a l       *ABS*	00000000 CACTL2
0000005b l       *ABS*	00000000 CAPD
000001a0 l       *ABS*	00000000 ADC12CTL0
000001a2 l       *ABS*	00000000 ADC12CTL1
000001a4 l       *ABS*	00000000 ADC12IFG
000001a6 l       *ABS*	00000000 ADC12IE
000001a8 l       *ABS*	00000000 ADC12IV
00000140 l       *ABS*	00000000 ADC12MEM0
00000142 l       *ABS*	00000000 ADC12MEM1
00000144 l       *ABS*	00000000 ADC12MEM2
00000146 l       *ABS*	00000000 ADC12MEM3
00000148 l       *ABS*	00000000 ADC12MEM4
0000014a l       *ABS*	00000000 ADC12MEM5
0000014c l       *ABS*	00000000 ADC12MEM6
0000014e l       *ABS*	00000000 ADC12MEM7
00000150 l       *ABS*	00000000 ADC12MEM8
00000152 l       *ABS*	00000000 ADC12MEM9
00000154 l       *ABS*	00000000 ADC12MEM10
00000156 l       *ABS*	00000000 ADC12MEM11
00000158 l       *ABS*	00000000 ADC12MEM12
0000015a l       *ABS*	00000000 ADC12MEM13
0000015c l       *ABS*	00000000 ADC12MEM14
0000015e l       *ABS*	00000000 ADC12MEM15
00000080 l       *ABS*	00000000 ADC12MCTL0
00000081 l       *ABS*	00000000 ADC12MCTL1
00000082 l       *ABS*	00000000 ADC12MCTL2
00000083 l       *ABS*	00000000 ADC12MCTL3
00000084 l       *ABS*	00000000 ADC12MCTL4
00000085 l       *ABS*	00000000 ADC12MCTL5
00000086 l       *ABS*	00000000 ADC12MCTL6
00000087 l       *ABS*	00000000 ADC12MCTL7
00000088 l       *ABS*	00000000 ADC12MCTL8
00000089 l       *ABS*	00000000 ADC12MCTL9
0000008a l       *ABS*	00000000 ADC12MCTL10
0000008b l       *ABS*	00000000 ADC12MCTL11
0000008c l       *ABS*	00000000 ADC12MCTL12
0000008d l       *ABS*	00000000 ADC12MCTL13
0000008e l       *ABS*	00000000 ADC12MCTL14
0000008f l       *ABS*	00000000 ADC12MCTL15
00000120 l       *ABS*	00000000 WDTCTL
00000000 l       *ABS*	00000000 IE1
00000002 l       *ABS*	00000000 IFG1
00000001 l       *ABS*	00000000 IE2
00000003 l       *ABS*	00000000 IFG2
000010c0 l       *ABS*	00000000 TLV_CHECKSUM
000010f6 l       *ABS*	00000000 TLV_DCO_30_TAG
000010f7 l       *ABS*	00000000 TLV_DCO_30_LEN
000010da l       *ABS*	00000000 TLV_ADC12_1_TAG
000010db l       *ABS*	00000000 TLV_ADC12_1_LEN
000010f8 l       *ABS*	00000000 CALDCO_16MHZ
000010f9 l       *ABS*	00000000 CALBC1_16MHZ
000010fa l       *ABS*	00000000 CALDCO_12MHZ
000010fb l       *ABS*	00000000 CALBC1_12MHZ
000010fc l       *ABS*	00000000 CALDCO_8MHZ
000010fd l       *ABS*	00000000 CALBC1_8MHZ
000010fe l       *ABS*	00000000 CALDCO_1MHZ
000010ff l       *ABS*	00000000 CALBC1_1MHZ
00000000 l    df *ABS*	00000000 can.c
00000130 l       *ABS*	00000000 __MPY
00000132 l       *ABS*	00000000 __MPYS
00000134 l       *ABS*	00000000 __MAC
00000136 l       *ABS*	00000000 __MACS
00000138 l       *ABS*	00000000 __OP2
0000013a l       *ABS*	00000000 __RESLO
0000013c l       *ABS*	00000000 __RESHI
0000013e l       *ABS*	00000000 __SUMEXT
00000000 l    df *ABS*	00000000 flash.c
00000130 l       *ABS*	00000000 __MPY
00000132 l       *ABS*	00000000 __MPYS
00000134 l       *ABS*	00000000 __MAC
00000136 l       *ABS*	00000000 __MACS
00000138 l       *ABS*	00000000 __OP2
0000013a l       *ABS*	00000000 __RESLO
0000013c l       *ABS*	00000000 __RESHI
0000013e l       *ABS*	00000000 __SUMEXT
00000000 l    df *ABS*	00000000 gauge.c
00000130 l       *ABS*	00000000 __MPY
00000132 l       *ABS*	00000000 __MPYS
00000134 l       *ABS*	00000000 __MAC
00000136 l       *ABS*	00000000 __MACS
00000138 l       *ABS*	00000000 __OP2
0000013a l       *ABS*	00000000 __RESLO
0000013c l       *ABS*	00000000 __RESHI
0000013e l       *ABS*	00000000 __SUMEXT
00000000 l    df *ABS*	00000000 pedal.c
00000130 l       *ABS*	00000000 __MPY
00000132 l       *ABS*	00000000 __MPYS
00000134 l       *ABS*	00000000 __MAC
00000136 l       *ABS*	00000000 __MACS
00000138 l       *ABS*	00000000 __OP2
0000013a l       *ABS*	00000000 __RESLO
0000013c l       *ABS*	00000000 __RESHI
0000013e l       *ABS*	00000000 __SUMEXT
00000000 l    df *ABS*	00000000 switch.c
00000130 l       *ABS*	00000000 __MPY
00000132 l       *ABS*	00000000 __MPYS
00000134 l       *ABS*	00000000 __MAC
00000136 l       *ABS*	00000000 __MACS
00000138 l       *ABS*	00000000 __OP2
0000013a l       *ABS*	00000000 __RESLO
0000013c l       *ABS*	00000000 __RESHI
0000013e l       *ABS*	00000000 __SUMEXT
00001102 l     O .data	00000009 switch_count.0
00000000 l    df *ABS*	00000000 tri86.c
00000130 l       *ABS*	00000000 __MPY
00000132 l       *ABS*	00000000 __MPYS
00000134 l       *ABS*	00000000 __MAC
00000136 l       *ABS*	00000000 __MACS
00000138 l       *ABS*	00000000 __OP2
0000013a l       *ABS*	00000000 __RESLO
0000013c l       *ABS*	00000000 __RESHI
0000013e l       *ABS*	00000000 __SUMEXT
00001126 l       .bss	00000000 gauge_count.0
00001128 l       .bss	00000000 gauge1_on.1
0000112a l       .bss	00000000 gauge1_off.2
0000112c l       .bss	00000000 gauge2_on.3
0000112e l       .bss	00000000 gauge2_off.4
00001124 l     O .data	00000001 comms_count.5
00001130 l       .bss	00000000 activity_count.6
00000000 l    df *ABS*	00000000 usci.c
00000130 l       *ABS*	00000000 __MPY
00000132 l       *ABS*	00000000 __MPYS
00000134 l       *ABS*	00000000 __MAC
00000136 l       *ABS*	00000000 __MACS
00000138 l       *ABS*	00000000 __OP2
0000013a l       *ABS*	00000000 __RESLO
0000013c l       *ABS*	00000000 __RESHI
0000013e l       *ABS*	00000000 __SUMEXT
00000000 l    df *ABS*	00000000 libgcc2.c
00009a48 l       .text	00000000 Letext
00000000 l    df *ABS*	00000000 fp-bit.c
00009a48 l     F .text	00000222 _fpadd_parts
00009d06 l       .text	00000000 Letext
00000000 l    df *ABS*	00000000 fp-bit.c
00009d52 l     F .text	0000021e _fpmul_parts
00009f70 l       .text	00000000 Letext
00000000 l    df *ABS*	00000000 fp-bit.c
00009fb6 l     F .text	0000012c _fpdiv_parts
0000a0e2 l       .text	00000000 Letext
00000000 l    df *ABS*	00000000 fp-bit.c
0000a144 l       .text	00000000 Letext
00000000 l    df *ABS*	00000000 fp-bit.c
0000a1a6 l       .text	00000000 Letext
00000000 l    df *ABS*	00000000 fp-bit.c
0000a208 l       .text	00000000 Letext
00000000 l    df *ABS*	00000000 fp-bit.c
0000a26a l       .text	00000000 Letext
00000000 l    df *ABS*	00000000 fp-bit.c
0000a2fc l       .text	00000000 Letext
00000000 l    df *ABS*	00000000 fp-bit.c
0000a398 l       .text	00000000 Letext
00000000 l    df *ABS*	00000000 fp-bit.c
0000a3a0 l       .text	00000000 Letext
00000000 l    df *ABS*	00000000 fp-bit.c
0000a550 l       .text	00000000 Letext
00000000 l    df *ABS*	00000000 fp-bit.c
0000a646 l       .text	00000000 Letext
00000000 l    df *ABS*	00000000 fp-bit.c
0000a75e l       .text	00000000 Letext
00001112 g     O .data	00000004 motor_temp
000083da g     F .text	000000a6 can_transmit
0000871a g     F .text	00000032 flash_write
00000026 g       *ABS*	00000000 __data_size
00008776 g     F .text	00000074 gauge_tach_update
00000002 g       *ABS*	00000000 __IFG1
00009f70 g     F .text	00000046 __divsf3
00008878 g     F .text	00000026 gauge_fuel_update
0000111e g     O .data	00000004 battery_current
0000a2fc g     F .text	0000009c __fixsfsi
0000111a g     O .data	00000004 battery_voltage
0000a760 g       .text	00000000 _etext
00009cb6 g     F .text	00000050 __subsf3
00009638 g     F .text	0000003c io_init
000001d4 g       *ABS*	00000000 __bss_size
0000985a g     F .text	00000012 usci_exchange
0000a75e  w      .text	00000000 __stop_progExec__
00008040 g       .text	00000000 _unexpected_1_
00008040  w      .text	00000000 vector_ffe0
000087ea g     F .text	00000064 gauge_power_update
000084be g     F .text	0000003a can_sleep
00008a70 g     F .text	000001aa switch_update
0000a208 g     F .text	00000062 __lesf2
00001132 g     O .bss	00000002 can_pop_ptr
000086e8 g     F .text	00000018 flash_erase
000012e2 g     O .bss	0000000e command
00008040  w      .text	00000000 vector_ffec
00008040  w      .text	00000000 vector_fff0
00008046 g     F .text	000001f0 can_init
0000a760 g       *ABS*	00000000 __data_load_start
00008040 g       .text	00000000 __dtors_end
00008040  w      .text	00000000 vector_fffc
000086e0 g     F .text	00000008 flash_init
0000855c g     F .text	00000056 can_read_rx
00008700 g     F .text	0000001a flash_read
00008040  w      .text	00000000 vector_ffe4
0000984a g     F .text	00000010 usci_transmit
0000a550 g     F .text	000000f6 __unpack_f
00008a6e g     F .text	00000002 switch_init
000012f2 g     O .bss	00000008 hware
0000981e g     F .text	0000002c usci_init
0000110e g     O .data	00000004 motor_rpm
000098b8 g     F .text	00000152 variant_devinfo_req
0000a0e2 g     F .text	00000062 __gtsf2
0000efe0 g     O .vectors	00000020 InterruptVectors
00008480 g     F .text	00000018 can_push
0000962a g     F .text	0000000e clock_init
0000a3a0 g     F .text	000001b0 __pack_f
00001100 g     O .data	00000002 switches
0000802c  w      .text	00000000 __do_clear_bss
00001134 g     O .bss	00000180 canq
0000986c g     F .text	0000004c variant_retreive_hware
00001122 g     O .data	00000002 inblWS
0000a26a g     F .text	00000092 __floatsisf
000012b4 g     O .bss	00000010 buffer
0000968e g     F .text	00000034 timerB_init
00008040  w      .text	00000000 vector_ffe2
00008040  w      .text	00000000 vector_ffe8
000085fa g     F .text	0000004c can_write_tx
00008044  w      .text	00000000 _unexpected_
0000970a g     F .text	000000c0 timer_b0
0000970a g       .text	00000000 vector_fffa
000012c4 g     O .bss	00000002 can_push_ptr
000086aa g     F .text	00000036 can_mod
000012c6 g     O .bss	0000000c can
00008010  w      .text	00000000 _reset_vector__
00008040 g       .text	00000000 __ctors_start
0000a398 g     O .text	00000008 __thenan_sf
0000801a  w      .text	00000000 __do_copy_data
000012da g     O .bss	00000008 gauge
000012f0 g     O .bss	00000002 can_addr
00001126 g       .bss	00000000 __bss_start
00008040  w      .text	00000000 vector_ffee
00008040  w      .text	00000000 vector_fff4
00008c1a g     F .text	00000a10 main
00008508 g     F .text	00000012 can_reset
00008040  w      .text	00000000 vector_fff8
000012d2 g     O .bss	00000008 flash
0000a1a6 g     F .text	00000062 __ltsf2
000097ca g       .text	00000000 vector_fff2
00009812 g     F .text	0000000c adc_isr
00009674 g     F .text	0000001a timerA_init
0000851a g     F .text	00000042 can_read
0000f000 g       .vectors	00000000 _vectors_end
00009d06 g     F .text	0000004c __mulsf3
00008040  w      .text	00000000 vector_ffe6
0000884e g     F .text	0000002a gauge_temp_update
0000a144 g     F .text	00000062 __gesf2
000096c2 g     F .text	00000048 adc_init
00008646 g     F .text	00000030 can_rts
00008010  w      .text	00000000 __init_stack
0000110c g     O .data	00000002 events
00008040 g       .text	00000000 __dtors_start
00008040 g       .text	00000000 __ctors_end
00008498 g     F .text	00000026 can_abort_transmit
00002100 g       *ABS*	00000000 __stack
0000889e g     F .text	000001d0 process_pedal
00008690 g     F .text	0000001a can_read_filter
00001126 g       .data	00000000 _edata
000012fa g       .bss	00000000 _end
0000ffd8 g     O .hware_version	00000008 bl_hware_info
00001116 g     O .data	00000004 controller_temp
00008676 g     F .text	0000001a can_read_status
000097ca g     F .text	00000048 timer_a0
00008040  w      .text	00000000 vector_fff6
00009a0a g     F .text	0000003e __fixunssfsi
0000a646 g     F .text	00000118 __fpcmp_parts_f
00008014  w      .text	00000000 __low_level_init
0000803c  w      .text	00000000 __jump_to_main
00001100 g       .data	00000000 __data_start
0000874c g     F .text	0000002a gauge_init
000084f8 g     F .text	00000010 can_wake
00009812 g       .text	00000000 vector_ffea
000085b2 g     F .text	00000048 can_write
00009c6a g     F .text	0000004c __addsf3
00008236 g     F .text	000001a4 can_receive


Disassembly of section .text:

00008010 <__init_stack>:
    8010:	31 40 00 21 	mov	#8448,	r1	;#0x2100

00008014 <__low_level_init>:
    8014:	b2 40 80 5a 	mov	#23168,	&0x0120	;#0x5a80
    8018:	20 01 

0000801a <__do_copy_data>:
    801a:	3f 40 26 00 	mov	#38,	r15	;#0x0026
    801e:	0f 93       	tst	r15		
    8020:	05 24       	jz	$+12     	;abs 0x802c
    8022:	2f 83       	decd	r15		
    8024:	9f 4f 60 a7 	mov	-22688(r15),4352(r15);0xa760(r15), 0x1100(r15)
    8028:	00 11 
    802a:	fb 23       	jnz	$-8      	;abs 0x8022

0000802c <__do_clear_bss>:
    802c:	3f 40 d4 01 	mov	#468,	r15	;#0x01d4
    8030:	0f 93       	tst	r15		
    8032:	04 24       	jz	$+10     	;abs 0x803c
    8034:	1f 83       	dec	r15		
    8036:	cf 43 26 11 	mov.b	#0,	4390(r15);r3 As==00, 0x1126(r15)
    803a:	fc 23       	jnz	$-6      	;abs 0x8034

0000803c <__jump_to_main>:
    803c:	30 40 1a 8c 	br	#0x8c1a	

00008040 <__ctors_end>:
    8040:	30 40 44 80 	br	#0x8044	

00008044 <_unexpected_>:
    8044:	00 13       	reti			

00008046 <can_init>:
    8046:	0b 12       	push	r11		
    8048:	0a 12       	push	r10		
    804a:	09 12       	push	r9		
    804c:	08 12       	push	r8		
    804e:	07 12       	push	r7		
    8050:	06 12       	push	r6		
    8052:	05 12       	push	r5		
    8054:	04 12       	push	r4		
    8056:	0b 4f       	mov	r15,	r11	
    8058:	b2 40 34 11 	mov	#4404,	&0x12c4	;#0x1134
    805c:	c4 12 
    805e:	92 42 c4 12 	mov	&0x12c4,&0x1132	
    8062:	32 11 
    8064:	b0 12 08 85 	call	#0x8508	
    8068:	0f 43       	clr	r15		
    806a:	3f 50 19 00 	add	#25,	r15	;#0x0019
    806e:	3f 90 e8 03 	cmp	#1000,	r15	;#0x03e8
    8072:	fb 2b       	jnc	$-8      	;abs 0x806a
    8074:	4d 43       	clr.b	r13		
    8076:	7e 40 03 00 	mov.b	#3,	r14	;#0x0003
    807a:	7f 40 0f 00 	mov.b	#15,	r15	;#0x000f
    807e:	b0 12 aa 86 	call	#0x86aa	
    8082:	2b 93       	cmp	#2,	r11	;r3 As==10
    8084:	39 24       	jz	$+116    	;abs 0x80f8
    8086:	3b 90 03 00 	cmp	#3,	r11	;#0x0003
    808a:	20 2c       	jc	$+66     	;abs 0x80cc
    808c:	0b 93       	tst	r11		
    808e:	14 24       	jz	$+42     	;abs 0x80b8
    8090:	1b 93       	cmp	#1,	r11	;r3 As==01
    8092:	09 24       	jz	$+20     	;abs 0x80a6
    8094:	f2 40 05 00 	mov.b	#5,	&0x12b4	;#0x0005
    8098:	b4 12 
    809a:	f2 40 f8 ff 	mov.b	#-8,	&0x12b5	;#0xfff8
    809e:	b5 12 
    80a0:	c2 43 b6 12 	mov.b	#0,	&0x12b6	;r3 As==00
    80a4:	32 3c       	jmp	$+102    	;abs 0x810a
    80a6:	f2 40 05 00 	mov.b	#5,	&0x12b4	;#0x0005
    80aa:	b4 12 
    80ac:	f2 40 f8 ff 	mov.b	#-8,	&0x12b5	;#0xfff8
    80b0:	b5 12 
    80b2:	e2 42 b6 12 	mov.b	#4,	&0x12b6	;r2 As==10
    80b6:	29 3c       	jmp	$+84     	;abs 0x810a
    80b8:	f2 40 05 00 	mov.b	#5,	&0x12b4	;#0x0005
    80bc:	b4 12 
    80be:	f2 40 f8 ff 	mov.b	#-8,	&0x12b5	;#0xfff8
    80c2:	b5 12 
    80c4:	f2 40 09 00 	mov.b	#9,	&0x12b6	;#0x0009
    80c8:	b6 12 
    80ca:	1f 3c       	jmp	$+64     	;abs 0x810a
    80cc:	2b 92       	cmp	#4,	r11	;r2 As==10
    80ce:	e2 27       	jz	$-58     	;abs 0x8094
    80d0:	2b 92       	cmp	#4,	r11	;r2 As==10
    80d2:	09 28       	jnc	$+20     	;abs 0x80e6
    80d4:	3b 90 05 00 	cmp	#5,	r11	;#0x0005
    80d8:	dd 23       	jnz	$-68     	;abs 0x8094
    80da:	e2 43 b4 12 	mov.b	#2,	&0x12b4	;r3 As==10
    80de:	f2 40 d0 ff 	mov.b	#-48,	&0x12b5	;#0xffd0
    80e2:	b5 12 
    80e4:	dd 3f       	jmp	$-68     	;abs 0x80a0
    80e6:	f2 40 05 00 	mov.b	#5,	&0x12b4	;#0x0005
    80ea:	b4 12 
    80ec:	f2 40 f8 ff 	mov.b	#-8,	&0x12b5	;#0xfff8
    80f0:	b5 12 
    80f2:	d2 43 b6 12 	mov.b	#1,	&0x12b6	;r3 As==01
    80f6:	09 3c       	jmp	$+20     	;abs 0x810a
    80f8:	f2 40 05 00 	mov.b	#5,	&0x12b4	;#0x0005
    80fc:	b4 12 
    80fe:	f2 40 f8 ff 	mov.b	#-8,	&0x12b5	;#0xfff8
    8102:	b5 12 
    8104:	f2 40 03 00 	mov.b	#3,	&0x12b6	;#0x0003
    8108:	b6 12 
    810a:	35 40 b7 12 	mov	#4791,	r5	;#0x12b7
    810e:	f5 40 63 00 	mov.b	#99,	0(r5)	;#0x0063, 0x0000(r5)
    8112:	00 00 
    8114:	c2 43 b8 12 	mov.b	#0,	&0x12b8	;r3 As==00
    8118:	c2 43 b9 12 	mov.b	#0,	&0x12b9	;r3 As==00
    811c:	7d 40 06 00 	mov.b	#6,	r13	;#0x0006
    8120:	3e 40 b4 12 	mov	#4788,	r14	;#0x12b4
    8124:	7f 40 28 00 	mov.b	#40,	r15	;#0x0028
    8128:	b0 12 b2 85 	call	#0x85b2	
    812c:	1f 42 f0 12 	mov	&0x12f0,r15	
    8130:	12 c3       	clrc			
    8132:	0f 10       	rrc	r15		
    8134:	0f 11       	rra	r15		
    8136:	0f 11       	rra	r15		
    8138:	c2 4f b4 12 	mov.b	r15,	&0x12b4	
    813c:	5f 42 f0 12 	mov.b	&0x12f0,r15	
    8140:	4f 5f       	rla.b	r15		
    8142:	4f 5f       	rla.b	r15		
    8144:	4f 5f       	rla.b	r15		
    8146:	4f 5f       	rla.b	r15		
    8148:	4f 5f       	rla.b	r15		
    814a:	c2 4f b5 12 	mov.b	r15,	&0x12b5	
    814e:	39 40 b6 12 	mov	#4790,	r9	;#0x12b6
    8152:	c9 43 00 00 	mov.b	#0,	0(r9)	;r3 As==00, 0x0000(r9)
    8156:	c5 43 00 00 	mov.b	#0,	0(r5)	;r3 As==00, 0x0000(r5)
    815a:	c2 43 b8 12 	mov.b	#0,	&0x12b8	;r3 As==00
    815e:	c2 43 b9 12 	mov.b	#0,	&0x12b9	;r3 As==00
    8162:	3a 40 ba 12 	mov	#4794,	r10	;#0x12ba
    8166:	ca 43 00 00 	mov.b	#0,	0(r10)	;r3 As==00, 0x0000(r10)
    816a:	3b 40 bb 12 	mov	#4795,	r11	;#0x12bb
    816e:	cb 43 00 00 	mov.b	#0,	0(r11)	;r3 As==00, 0x0000(r11)
    8172:	38 40 bc 12 	mov	#4796,	r8	;#0x12bc
    8176:	f8 40 80 ff 	mov.b	#-128,	0(r8)	;#0xff80, 0x0000(r8)
    817a:	00 00 
    817c:	37 40 bd 12 	mov	#4797,	r7	;#0x12bd
    8180:	c7 43 00 00 	mov.b	#0,	0(r7)	;r3 As==00, 0x0000(r7)
    8184:	36 40 be 12 	mov	#4798,	r6	;#0x12be
    8188:	c6 43 00 00 	mov.b	#0,	0(r6)	;r3 As==00, 0x0000(r6)
    818c:	34 40 bf 12 	mov	#4799,	r4	;#0x12bf
    8190:	c4 43 00 00 	mov.b	#0,	0(r4)	;r3 As==00, 0x0000(r4)
    8194:	7d 40 0c 00 	mov.b	#12,	r13	;#0x000c
    8198:	3e 40 b4 12 	mov	#4788,	r14	;#0x12b4
    819c:	4f 43       	clr.b	r15		
    819e:	b0 12 b2 85 	call	#0x85b2	
    81a2:	f2 40 b0 ff 	mov.b	#-80,	&0x12b4	;#0xffb0
    81a6:	b4 12 
    81a8:	c2 43 b5 12 	mov.b	#0,	&0x12b5	;r3 As==00
    81ac:	c9 43 00 00 	mov.b	#0,	0(r9)	;r3 As==00, 0x0000(r9)
    81b0:	c5 43 00 00 	mov.b	#0,	0(r5)	;r3 As==00, 0x0000(r5)
    81b4:	c2 43 b8 12 	mov.b	#0,	&0x12b8	;r3 As==00
    81b8:	c2 43 b9 12 	mov.b	#0,	&0x12b9	;r3 As==00
    81bc:	ca 43 00 00 	mov.b	#0,	0(r10)	;r3 As==00, 0x0000(r10)
    81c0:	cb 43 00 00 	mov.b	#0,	0(r11)	;r3 As==00, 0x0000(r11)
    81c4:	c8 43 00 00 	mov.b	#0,	0(r8)	;r3 As==00, 0x0000(r8)
    81c8:	c7 43 00 00 	mov.b	#0,	0(r7)	;r3 As==00, 0x0000(r7)
    81cc:	c6 43 00 00 	mov.b	#0,	0(r6)	;r3 As==00, 0x0000(r6)
    81d0:	c4 43 00 00 	mov.b	#0,	0(r4)	;r3 As==00, 0x0000(r4)
    81d4:	7d 40 0c 00 	mov.b	#12,	r13	;#0x000c
    81d8:	3e 40 b4 12 	mov	#4788,	r14	;#0x12b4
    81dc:	7f 40 10 00 	mov.b	#16,	r15	;#0x0010
    81e0:	b0 12 b2 85 	call	#0x85b2	
    81e4:	f2 40 fc ff 	mov.b	#-4,	&0x12b4	;#0xfffc
    81e8:	b4 12 
    81ea:	c2 43 b5 12 	mov.b	#0,	&0x12b5	;r3 As==00
    81ee:	c9 43 00 00 	mov.b	#0,	0(r9)	;r3 As==00, 0x0000(r9)
    81f2:	c5 43 00 00 	mov.b	#0,	0(r5)	;r3 As==00, 0x0000(r5)
    81f6:	f2 40 fc ff 	mov.b	#-4,	&0x12b8	;#0xfffc
    81fa:	b8 12 
    81fc:	c2 43 b9 12 	mov.b	#0,	&0x12b9	;r3 As==00
    8200:	ca 43 00 00 	mov.b	#0,	0(r10)	;r3 As==00, 0x0000(r10)
    8204:	cb 43 00 00 	mov.b	#0,	0(r11)	;r3 As==00, 0x0000(r11)
    8208:	7d 42       	mov.b	#8,	r13	;r2 As==11
    820a:	3e 40 b4 12 	mov	#4788,	r14	;#0x12b4
    820e:	7f 40 20 00 	mov.b	#32,	r15	;#0x0020
    8212:	b0 12 b2 85 	call	#0x85b2	
    8216:	4d 43       	clr.b	r13		
    8218:	7e 40 e0 ff 	mov.b	#-32,	r14	;#0xffe0
    821c:	7f 40 0f 00 	mov.b	#15,	r15	;#0x000f
    8220:	b0 12 aa 86 	call	#0x86aa	
    8224:	34 41       	pop	r4		
    8226:	35 41       	pop	r5		
    8228:	36 41       	pop	r6		
    822a:	37 41       	pop	r7		
    822c:	38 41       	pop	r8		
    822e:	39 41       	pop	r9		
    8230:	3a 41       	pop	r10		
    8232:	3b 41       	pop	r11		
    8234:	30 41       	ret			

00008236 <can_receive>:
    8236:	21 83       	decd	r1		
    8238:	5d 43       	mov.b	#1,	r13	;r3 As==01
    823a:	0e 41       	mov	r1,	r14	
    823c:	7f 40 2c 00 	mov.b	#44,	r15	;#0x002c
    8240:	b0 12 1a 85 	call	#0x851a	
    8244:	6e 41       	mov.b	@r1,	r14	
    8246:	7e b0 20 00 	bit.b	#32,	r14	;#0x0020
    824a:	2c 24       	jz	$+90     	;abs 0x82a4
    824c:	5d 43       	mov.b	#1,	r13	;r3 As==01
    824e:	3e 40 b4 12 	mov	#4788,	r14	;#0x12b4
    8252:	7f 40 2d 00 	mov.b	#45,	r15	;#0x002d
    8256:	b0 12 1a 85 	call	#0x851a	
    825a:	6d 43       	mov.b	#2,	r13	;r3 As==10
    825c:	3e 40 b5 12 	mov	#4789,	r14	;#0x12b5
    8260:	7f 40 1c 00 	mov.b	#28,	r15	;#0x001c
    8264:	b0 12 1a 85 	call	#0x851a	
    8268:	4d 43       	clr.b	r13		
    826a:	5e 42 b4 12 	mov.b	&0x12b4,r14	
    826e:	7f 40 2d 00 	mov.b	#45,	r15	;#0x002d
    8272:	b0 12 aa 86 	call	#0x86aa	
    8276:	b2 43 c6 12 	mov	#-1,	&0x12c6	;r3 As==11
    827a:	82 43 c8 12 	mov	#0,	&0x12c8	;r3 As==00
    827e:	e2 41 ca 12 	mov.b	@r1,	&0x12ca	
    8282:	d2 42 b4 12 	mov.b	&0x12b4,&0x12cb	
    8286:	cb 12 
    8288:	d2 42 b5 12 	mov.b	&0x12b5,&0x12cc	
    828c:	cc 12 
    828e:	d2 42 b6 12 	mov.b	&0x12b6,&0x12cd	
    8292:	cd 12 
    8294:	4d 43       	clr.b	r13		
    8296:	7e 40 20 00 	mov.b	#32,	r14	;#0x0020
    829a:	7f 40 2c 00 	mov.b	#44,	r15	;#0x002c
    829e:	b0 12 aa 86 	call	#0x86aa	
    82a2:	99 3c       	jmp	$+308    	;abs 0x83d6
    82a4:	5e b3       	bit.b	#1,	r14	;r3 As==01
    82a6:	40 24       	jz	$+130    	;abs 0x8328
    82a8:	7d 40 0e 00 	mov.b	#14,	r13	;#0x000e
    82ac:	3e 40 b4 12 	mov	#4788,	r14	;#0x12b4
    82b0:	7f 40 60 00 	mov.b	#96,	r15	;#0x0060
    82b4:	b0 12 1a 85 	call	#0x851a	
    82b8:	f2 b2 b4 12 	bit.b	#8,	&0x12b4	;r2 As==11
    82bc:	31 20       	jnz	$+100    	;abs 0x8320
    82be:	92 43 c6 12 	mov	#1,	&0x12c6	;r3 As==01
    82c2:	d2 42 ba 12 	mov.b	&0x12ba,&0x12ca	
    82c6:	ca 12 
    82c8:	d2 42 bb 12 	mov.b	&0x12bb,&0x12cb	
    82cc:	cb 12 
    82ce:	d2 42 bc 12 	mov.b	&0x12bc,&0x12cc	
    82d2:	cc 12 
    82d4:	d2 42 bd 12 	mov.b	&0x12bd,&0x12cd	
    82d8:	cd 12 
    82da:	d2 42 be 12 	mov.b	&0x12be,&0x12ce	
    82de:	ce 12 
    82e0:	d2 42 bf 12 	mov.b	&0x12bf,&0x12cf	
    82e4:	cf 12 
    82e6:	d2 42 c0 12 	mov.b	&0x12c0,&0x12d0	
    82ea:	d0 12 
    82ec:	d2 42 c1 12 	mov.b	&0x12c1,&0x12d1	
    82f0:	d1 12 
    82f2:	5f 42 b5 12 	mov.b	&0x12b5,r15	
    82f6:	0f 5f       	rla	r15		
    82f8:	0f 5f       	rla	r15		
    82fa:	0f 5f       	rla	r15		
    82fc:	3e 40 b6 12 	mov	#4790,	r14	;#0x12b6
    8300:	6d 4e       	mov.b	@r14,	r13	
    8302:	12 c3       	clrc			
    8304:	4d 10       	rrc.b	r13		
    8306:	4d 11       	rra.b	r13		
    8308:	4d 11       	rra.b	r13		
    830a:	4d 11       	rra.b	r13		
    830c:	4d 11       	rra.b	r13		
    830e:	ce 4d 00 00 	mov.b	r13,	0(r14)	;0x0000(r14)
    8312:	4e 4d       	mov.b	r13,	r14	
    8314:	0f de       	bis	r14,	r15	
    8316:	82 4f c8 12 	mov	r15,	&0x12c8	
    831a:	4d 43       	clr.b	r13		
    831c:	5e 43       	mov.b	#1,	r14	;r3 As==01
    831e:	bd 3f       	jmp	$-132    	;abs 0x829a
    8320:	b2 40 fc ff 	mov	#-4,	&0x12c6	;#0xfffc
    8324:	c6 12 
    8326:	e5 3f       	jmp	$-52     	;abs 0x82f2
    8328:	6e b3       	bit.b	#2,	r14	;r3 As==10
    832a:	40 24       	jz	$+130    	;abs 0x83ac
    832c:	7d 40 0e 00 	mov.b	#14,	r13	;#0x000e
    8330:	3e 40 b4 12 	mov	#4788,	r14	;#0x12b4
    8334:	7f 40 70 00 	mov.b	#112,	r15	;#0x0070
    8338:	b0 12 1a 85 	call	#0x851a	
    833c:	f2 b2 b4 12 	bit.b	#8,	&0x12b4	;r2 As==11
    8340:	31 20       	jnz	$+100    	;abs 0x83a4
    8342:	92 43 c6 12 	mov	#1,	&0x12c6	;r3 As==01
    8346:	d2 42 ba 12 	mov.b	&0x12ba,&0x12ca	
    834a:	ca 12 
    834c:	d2 42 bb 12 	mov.b	&0x12bb,&0x12cb	
    8350:	cb 12 
    8352:	d2 42 bc 12 	mov.b	&0x12bc,&0x12cc	
    8356:	cc 12 
    8358:	d2 42 bd 12 	mov.b	&0x12bd,&0x12cd	
    835c:	cd 12 
    835e:	d2 42 be 12 	mov.b	&0x12be,&0x12ce	
    8362:	ce 12 
    8364:	d2 42 bf 12 	mov.b	&0x12bf,&0x12cf	
    8368:	cf 12 
    836a:	d2 42 c0 12 	mov.b	&0x12c0,&0x12d0	
    836e:	d0 12 
    8370:	d2 42 c1 12 	mov.b	&0x12c1,&0x12d1	
    8374:	d1 12 
    8376:	5f 42 b5 12 	mov.b	&0x12b5,r15	
    837a:	0f 5f       	rla	r15		
    837c:	0f 5f       	rla	r15		
    837e:	0f 5f       	rla	r15		
    8380:	3e 40 b6 12 	mov	#4790,	r14	;#0x12b6
    8384:	6d 4e       	mov.b	@r14,	r13	
    8386:	12 c3       	clrc			
    8388:	4d 10       	rrc.b	r13		
    838a:	4d 11       	rra.b	r13		
    838c:	4d 11       	rra.b	r13		
    838e:	4d 11       	rra.b	r13		
    8390:	4d 11       	rra.b	r13		
    8392:	ce 4d 00 00 	mov.b	r13,	0(r14)	;0x0000(r14)
    8396:	4e 4d       	mov.b	r13,	r14	
    8398:	0f de       	bis	r14,	r15	
    839a:	82 4f c8 12 	mov	r15,	&0x12c8	
    839e:	4d 43       	clr.b	r13		
    83a0:	6e 43       	mov.b	#2,	r14	;r3 As==10
    83a2:	7b 3f       	jmp	$-264    	;abs 0x829a
    83a4:	b2 40 fc ff 	mov	#-4,	&0x12c6	;#0xfffc
    83a8:	c6 12 
    83aa:	e5 3f       	jmp	$-52     	;abs 0x8376
    83ac:	7e b0 40 00 	bit.b	#64,	r14	;#0x0040
    83b0:	0c 24       	jz	$+26     	;abs 0x83ca
    83b2:	4d 43       	clr.b	r13		
    83b4:	7e 40 40 00 	mov.b	#64,	r14	;#0x0040
    83b8:	7f 40 2c 00 	mov.b	#44,	r15	;#0x002c
    83bc:	b0 12 aa 86 	call	#0x86aa	
    83c0:	b2 43 c6 12 	mov	#-1,	&0x12c6	;r3 As==11
    83c4:	a2 43 c8 12 	mov	#2,	&0x12c8	;r3 As==10
    83c8:	06 3c       	jmp	$+14     	;abs 0x83d6
    83ca:	b2 43 c6 12 	mov	#-1,	&0x12c6	;r3 As==11
    83ce:	92 43 c8 12 	mov	#1,	&0x12c8	;r3 As==01
    83d2:	c2 4e ca 12 	mov.b	r14,	&0x12ca	
    83d6:	21 53       	incd	r1		
    83d8:	30 41       	ret			

000083da <can_transmit>:
    83da:	92 92 32 11 	cmp	&0x1132,&0x12c4	
    83de:	c4 12 
    83e0:	4c 24       	jz	$+154    	;abs 0x847a
    83e2:	b0 12 76 86 	call	#0x8676	
    83e6:	6f f2       	and.b	#4,	r15	;r2 As==10
    83e8:	02 24       	jz	$+6      	;abs 0x83ee
    83ea:	3f 43       	mov	#-1,	r15	;r3 As==11
    83ec:	30 41       	ret			
    83ee:	1e 42 32 11 	mov	&0x1132,r14	
    83f2:	1f 4e 02 00 	mov	2(r14),	r15	;0x0002(r14)
    83f6:	12 c3       	clrc			
    83f8:	0f 10       	rrc	r15		
    83fa:	0f 11       	rra	r15		
    83fc:	0f 11       	rra	r15		
    83fe:	c2 4f b4 12 	mov.b	r15,	&0x12b4	
    8402:	5f 4e 02 00 	mov.b	2(r14),	r15	;0x0002(r14)
    8406:	4f 5f       	rla.b	r15		
    8408:	4f 5f       	rla.b	r15		
    840a:	4f 5f       	rla.b	r15		
    840c:	4f 5f       	rla.b	r15		
    840e:	4f 5f       	rla.b	r15		
    8410:	c2 4f b5 12 	mov.b	r15,	&0x12b5	
    8414:	c2 43 b6 12 	mov.b	#0,	&0x12b6	;r3 As==00
    8418:	c2 43 b7 12 	mov.b	#0,	&0x12b7	;r3 As==00
    841c:	e2 4e b8 12 	mov.b	@r14,	&0x12b8	
    8420:	d2 4e 04 00 	mov.b	4(r14),	&0x12b9	;0x0004(r14)
    8424:	b9 12 
    8426:	d2 4e 05 00 	mov.b	5(r14),	&0x12ba	;0x0005(r14)
    842a:	ba 12 
    842c:	d2 4e 06 00 	mov.b	6(r14),	&0x12bb	;0x0006(r14)
    8430:	bb 12 
    8432:	d2 4e 07 00 	mov.b	7(r14),	&0x12bc	;0x0007(r14)
    8436:	bc 12 
    8438:	d2 4e 08 00 	mov.b	8(r14),	&0x12bd	;0x0008(r14)
    843c:	bd 12 
    843e:	d2 4e 09 00 	mov.b	9(r14),	&0x12be	;0x0009(r14)
    8442:	be 12 
    8444:	d2 4e 0a 00 	mov.b	10(r14),&0x12bf	;0x000a(r14)
    8448:	bf 12 
    844a:	d2 4e 0b 00 	mov.b	11(r14),&0x12c0	;0x000b(r14)
    844e:	c0 12 
    8450:	3e 40 b4 12 	mov	#4788,	r14	;#0x12b4
    8454:	4f 43       	clr.b	r15		
    8456:	b0 12 fa 85 	call	#0x85fa	
    845a:	4f 43       	clr.b	r15		
    845c:	b0 12 46 86 	call	#0x8646	
    8460:	b2 50 0c 00 	add	#12,	&0x1132	;#0x000c
    8464:	32 11 
    8466:	b2 90 b4 12 	cmp	#4788,	&0x1132	;#0x12b4
    846a:	32 11 
    846c:	02 24       	jz	$+6      	;abs 0x8472
    846e:	1f 43       	mov	#1,	r15	;r3 As==01
    8470:	30 41       	ret			
    8472:	b2 40 34 11 	mov	#4404,	&0x1132	;#0x1134
    8476:	32 11 
    8478:	fa 3f       	jmp	$-10     	;abs 0x846e
    847a:	3f 40 fd ff 	mov	#-3,	r15	;#0xfffd
    847e:	30 41       	ret			

00008480 <can_push>:
    8480:	b2 50 0c 00 	add	#12,	&0x12c4	;#0x000c
    8484:	c4 12 
    8486:	b2 90 b4 12 	cmp	#4788,	&0x12c4	;#0x12b4
    848a:	c4 12 
    848c:	01 24       	jz	$+4      	;abs 0x8490
    848e:	30 41       	ret			
    8490:	b2 40 34 11 	mov	#4404,	&0x12c4	;#0x1134
    8494:	c4 12 
    8496:	fb 3f       	jmp	$-8      	;abs 0x848e

00008498 <can_abort_transmit>:
    8498:	4d 43       	clr.b	r13		
    849a:	7e 42       	mov.b	#8,	r14	;r2 As==11
    849c:	7f 40 30 00 	mov.b	#48,	r15	;#0x0030
    84a0:	b0 12 aa 86 	call	#0x86aa	
    84a4:	4d 43       	clr.b	r13		
    84a6:	7e 42       	mov.b	#8,	r14	;r2 As==11
    84a8:	7f 40 40 00 	mov.b	#64,	r15	;#0x0040
    84ac:	b0 12 aa 86 	call	#0x86aa	
    84b0:	4d 43       	clr.b	r13		
    84b2:	7e 42       	mov.b	#8,	r14	;r2 As==11
    84b4:	7f 40 50 00 	mov.b	#80,	r15	;#0x0050
    84b8:	b0 12 aa 86 	call	#0x86aa	
    84bc:	30 41       	ret			

000084be <can_sleep>:
    84be:	21 83       	decd	r1		
    84c0:	7d 40 20 00 	mov.b	#32,	r13	;#0x0020
    84c4:	7e 40 e0 ff 	mov.b	#-32,	r14	;#0xffe0
    84c8:	7f 40 0f 00 	mov.b	#15,	r15	;#0x000f
    84cc:	b0 12 aa 86 	call	#0x86aa	
    84d0:	6f 41       	mov.b	@r1,	r15	
    84d2:	7f f0 e0 ff 	and.b	#-32,	r15	;#0xffe0
    84d6:	7f 90 20 00 	cmp.b	#32,	r15	;#0x0020
    84da:	0c 24       	jz	$+26     	;abs 0x84f4
    84dc:	5d 43       	mov.b	#1,	r13	;r3 As==01
    84de:	0e 41       	mov	r1,	r14	
    84e0:	7f 40 0e 00 	mov.b	#14,	r15	;#0x000e
    84e4:	b0 12 1a 85 	call	#0x851a	
    84e8:	6f 41       	mov.b	@r1,	r15	
    84ea:	7f f0 e0 ff 	and.b	#-32,	r15	;#0xffe0
    84ee:	7f 90 20 00 	cmp.b	#32,	r15	;#0x0020
    84f2:	f4 23       	jnz	$-22     	;abs 0x84dc
    84f4:	21 53       	incd	r1		
    84f6:	30 41       	ret			

000084f8 <can_wake>:
    84f8:	4d 43       	clr.b	r13		
    84fa:	7e 40 e0 ff 	mov.b	#-32,	r14	;#0xffe0
    84fe:	7f 40 0f 00 	mov.b	#15,	r15	;#0x000f
    8502:	b0 12 aa 86 	call	#0x86aa	
    8506:	30 41       	ret			

00008508 <can_reset>:
    8508:	d2 c3 19 00 	bic.b	#1,	&0x0019	;r3 As==01
    850c:	7f 40 c0 ff 	mov.b	#-64,	r15	;#0xffc0
    8510:	b0 12 4a 98 	call	#0x984a	
    8514:	d2 d3 19 00 	bis.b	#1,	&0x0019	;r3 As==01
    8518:	30 41       	ret			

0000851a <can_read>:
    851a:	0b 12       	push	r11		
    851c:	0a 12       	push	r10		
    851e:	09 12       	push	r9		
    8520:	4b 4f       	mov.b	r15,	r11	
    8522:	0a 4e       	mov	r14,	r10	
    8524:	49 4d       	mov.b	r13,	r9	
    8526:	d2 c3 19 00 	bic.b	#1,	&0x0019	;r3 As==01
    852a:	7f 40 03 00 	mov.b	#3,	r15	;#0x0003
    852e:	b0 12 4a 98 	call	#0x984a	
    8532:	4f 4b       	mov.b	r11,	r15	
    8534:	b0 12 4a 98 	call	#0x984a	
    8538:	4b 43       	clr.b	r11		
    853a:	4b 99       	cmp.b	r9,	r11	
    853c:	09 2c       	jc	$+20     	;abs 0x8550
    853e:	4f 43       	clr.b	r15		
    8540:	b0 12 5a 98 	call	#0x985a	
    8544:	ca 4f 00 00 	mov.b	r15,	0(r10)	;0x0000(r10)
    8548:	1a 53       	inc	r10		
    854a:	5b 53       	inc.b	r11		
    854c:	4b 99       	cmp.b	r9,	r11	
    854e:	f7 2b       	jnc	$-16     	;abs 0x853e
    8550:	d2 d3 19 00 	bis.b	#1,	&0x0019	;r3 As==01
    8554:	39 41       	pop	r9		
    8556:	3a 41       	pop	r10		
    8558:	3b 41       	pop	r11		
    855a:	30 41       	ret			

0000855c <can_read_rx>:
    855c:	0b 12       	push	r11		
    855e:	0a 12       	push	r10		
    8560:	4b 4f       	mov.b	r15,	r11	
    8562:	0a 4e       	mov	r14,	r10	
    8564:	7b f0 03 00 	and.b	#3,	r11	;#0x0003
    8568:	4b 5b       	rla.b	r11		
    856a:	7b d0 90 ff 	bis.b	#-112,	r11	;#0xff90
    856e:	d2 c3 19 00 	bic.b	#1,	&0x0019	;r3 As==01
    8572:	4f 4b       	mov.b	r11,	r15	
    8574:	b0 12 4a 98 	call	#0x984a	
    8578:	6b b3       	bit.b	#2,	r11	;r3 As==10
    857a:	0c 20       	jnz	$+26     	;abs 0x8594
    857c:	4b 43       	clr.b	r11		
    857e:	4f 43       	clr.b	r15		
    8580:	b0 12 5a 98 	call	#0x985a	
    8584:	ca 4f 00 00 	mov.b	r15,	0(r10)	;0x0000(r10)
    8588:	1a 53       	inc	r10		
    858a:	5b 53       	inc.b	r11		
    858c:	7b 90 0d 00 	cmp.b	#13,	r11	;#0x000d
    8590:	f6 2b       	jnc	$-18     	;abs 0x857e
    8592:	0a 3c       	jmp	$+22     	;abs 0x85a8
    8594:	4b 43       	clr.b	r11		
    8596:	4f 43       	clr.b	r15		
    8598:	b0 12 5a 98 	call	#0x985a	
    859c:	ca 4f 00 00 	mov.b	r15,	0(r10)	;0x0000(r10)
    85a0:	1a 53       	inc	r10		
    85a2:	5b 53       	inc.b	r11		
    85a4:	7b 92       	cmp.b	#8,	r11	;r2 As==11
    85a6:	f7 2b       	jnc	$-16     	;abs 0x8596
    85a8:	d2 d3 19 00 	bis.b	#1,	&0x0019	;r3 As==01
    85ac:	3a 41       	pop	r10		
    85ae:	3b 41       	pop	r11		
    85b0:	30 41       	ret			

000085b2 <can_write>:
    85b2:	0b 12       	push	r11		
    85b4:	0a 12       	push	r10		
    85b6:	09 12       	push	r9		
    85b8:	4b 4f       	mov.b	r15,	r11	
    85ba:	09 4e       	mov	r14,	r9	
    85bc:	4a 4d       	mov.b	r13,	r10	
    85be:	d2 c3 19 00 	bic.b	#1,	&0x0019	;r3 As==01
    85c2:	6f 43       	mov.b	#2,	r15	;r3 As==10
    85c4:	b0 12 4a 98 	call	#0x984a	
    85c8:	4f 4b       	mov.b	r11,	r15	
    85ca:	b0 12 4a 98 	call	#0x984a	
    85ce:	4b 43       	clr.b	r11		
    85d0:	7a f3       	and.b	#-1,	r10	;r3 As==11
    85d2:	3a 53       	add	#-1,	r10	;r3 As==11
    85d4:	1a 93       	cmp	#1,	r10	;r3 As==01
    85d6:	08 38       	jl	$+18     	;abs 0x85e8
    85d8:	6f 49       	mov.b	@r9,	r15	
    85da:	19 53       	inc	r9		
    85dc:	b0 12 4a 98 	call	#0x984a	
    85e0:	5b 53       	inc.b	r11		
    85e2:	4f 4b       	mov.b	r11,	r15	
    85e4:	0f 9a       	cmp	r10,	r15	
    85e6:	f8 3b       	jl	$-14     	;abs 0x85d8
    85e8:	6f 49       	mov.b	@r9,	r15	
    85ea:	b0 12 4a 98 	call	#0x984a	
    85ee:	d2 d3 19 00 	bis.b	#1,	&0x0019	;r3 As==01
    85f2:	39 41       	pop	r9		
    85f4:	3a 41       	pop	r10		
    85f6:	3b 41       	pop	r11		
    85f8:	30 41       	ret			

000085fa <can_write_tx>:
    85fa:	0b 12       	push	r11		
    85fc:	0a 12       	push	r10		
    85fe:	4b 4f       	mov.b	r15,	r11	
    8600:	0a 4e       	mov	r14,	r10	
    8602:	7b f0 07 00 	and.b	#7,	r11	;#0x0007
    8606:	7b d0 40 00 	bis.b	#64,	r11	;#0x0040
    860a:	d2 c3 19 00 	bic.b	#1,	&0x0019	;r3 As==01
    860e:	4f 4b       	mov.b	r11,	r15	
    8610:	b0 12 4a 98 	call	#0x984a	
    8614:	5b b3       	bit.b	#1,	r11	;r3 As==01
    8616:	0a 20       	jnz	$+22     	;abs 0x862c
    8618:	4b 43       	clr.b	r11		
    861a:	6f 4a       	mov.b	@r10,	r15	
    861c:	1a 53       	inc	r10		
    861e:	b0 12 4a 98 	call	#0x984a	
    8622:	5b 53       	inc.b	r11		
    8624:	7b 90 0d 00 	cmp.b	#13,	r11	;#0x000d
    8628:	f8 2b       	jnc	$-14     	;abs 0x861a
    862a:	08 3c       	jmp	$+18     	;abs 0x863c
    862c:	4b 43       	clr.b	r11		
    862e:	6f 4a       	mov.b	@r10,	r15	
    8630:	1a 53       	inc	r10		
    8632:	b0 12 4a 98 	call	#0x984a	
    8636:	5b 53       	inc.b	r11		
    8638:	7b 92       	cmp.b	#8,	r11	;r2 As==11
    863a:	f9 2b       	jnc	$-12     	;abs 0x862e
    863c:	d2 d3 19 00 	bis.b	#1,	&0x0019	;r3 As==01
    8640:	3a 41       	pop	r10		
    8642:	3b 41       	pop	r11		
    8644:	30 41       	ret			

00008646 <can_rts>:
    8646:	7e 40 80 ff 	mov.b	#-128,	r14	;#0xff80
    864a:	4f 93       	tst.b	r15		
    864c:	03 20       	jnz	$+8      	;abs 0x8654
    864e:	7e 40 81 ff 	mov.b	#-127,	r14	;#0xff81
    8652:	09 3c       	jmp	$+20     	;abs 0x8666
    8654:	5f 93       	cmp.b	#1,	r15	;r3 As==01
    8656:	05 24       	jz	$+12     	;abs 0x8662
    8658:	6f 93       	cmp.b	#2,	r15	;r3 As==10
    865a:	05 20       	jnz	$+12     	;abs 0x8666
    865c:	7e 40 84 ff 	mov.b	#-124,	r14	;#0xff84
    8660:	02 3c       	jmp	$+6      	;abs 0x8666
    8662:	7e 40 82 ff 	mov.b	#-126,	r14	;#0xff82
    8666:	d2 c3 19 00 	bic.b	#1,	&0x0019	;r3 As==01
    866a:	4f 4e       	mov.b	r14,	r15	
    866c:	b0 12 4a 98 	call	#0x984a	
    8670:	d2 d3 19 00 	bis.b	#1,	&0x0019	;r3 As==01
    8674:	30 41       	ret			

00008676 <can_read_status>:
    8676:	d2 c3 19 00 	bic.b	#1,	&0x0019	;r3 As==01
    867a:	7f 40 a0 ff 	mov.b	#-96,	r15	;#0xffa0
    867e:	b0 12 4a 98 	call	#0x984a	
    8682:	4f 43       	clr.b	r15		
    8684:	b0 12 5a 98 	call	#0x985a	
    8688:	d2 d3 19 00 	bis.b	#1,	&0x0019	;r3 As==01
    868c:	7f f3       	and.b	#-1,	r15	;r3 As==11
    868e:	30 41       	ret			

00008690 <can_read_filter>:
    8690:	d2 c3 19 00 	bic.b	#1,	&0x0019	;r3 As==01
    8694:	7f 40 b0 ff 	mov.b	#-80,	r15	;#0xffb0
    8698:	b0 12 4a 98 	call	#0x984a	
    869c:	4f 43       	clr.b	r15		
    869e:	b0 12 5a 98 	call	#0x985a	
    86a2:	d2 d3 19 00 	bis.b	#1,	&0x0019	;r3 As==01
    86a6:	7f f3       	and.b	#-1,	r15	;r3 As==11
    86a8:	30 41       	ret			

000086aa <can_mod>:
    86aa:	0b 12       	push	r11		
    86ac:	0a 12       	push	r10		
    86ae:	09 12       	push	r9		
    86b0:	4b 4f       	mov.b	r15,	r11	
    86b2:	4a 4e       	mov.b	r14,	r10	
    86b4:	49 4d       	mov.b	r13,	r9	
    86b6:	d2 c3 19 00 	bic.b	#1,	&0x0019	;r3 As==01
    86ba:	7f 40 05 00 	mov.b	#5,	r15	;#0x0005
    86be:	b0 12 4a 98 	call	#0x984a	
    86c2:	4f 4b       	mov.b	r11,	r15	
    86c4:	b0 12 4a 98 	call	#0x984a	
    86c8:	4f 4a       	mov.b	r10,	r15	
    86ca:	b0 12 4a 98 	call	#0x984a	
    86ce:	4f 49       	mov.b	r9,	r15	
    86d0:	b0 12 4a 98 	call	#0x984a	
    86d4:	d2 d3 19 00 	bis.b	#1,	&0x0019	;r3 As==01
    86d8:	39 41       	pop	r9		
    86da:	3a 41       	pop	r10		
    86dc:	3b 41       	pop	r11		
    86de:	30 41       	ret			

000086e0 <flash_init>:
    86e0:	b2 40 6b a5 	mov	#-23189,&0x012a	;#0xa56b
    86e4:	2a 01 
    86e6:	30 41       	ret			

000086e8 <flash_erase>:
    86e8:	b2 40 00 a5 	mov	#-23296,&0x012c	;#0xa500
    86ec:	2c 01 
    86ee:	b2 40 02 a5 	mov	#-23294,&0x0128	;#0xa502
    86f2:	28 01 
    86f4:	c2 43 00 10 	mov.b	#0,	&0x1000	;r3 As==00
    86f8:	b2 40 10 a5 	mov	#-23280,&0x012c	;#0xa510
    86fc:	2c 01 
    86fe:	30 41       	ret			

00008700 <flash_read>:
    8700:	3c 40 00 10 	mov	#4096,	r12	;#0x1000
    8704:	4d 43       	clr.b	r13		
    8706:	4d 9e       	cmp.b	r14,	r13	
    8708:	07 2c       	jc	$+16     	;abs 0x8718
    870a:	ef 4c 00 00 	mov.b	@r12,	0(r15)	;0x0000(r15)
    870e:	1c 53       	inc	r12		
    8710:	1f 53       	inc	r15		
    8712:	5d 53       	inc.b	r13		
    8714:	4d 9e       	cmp.b	r14,	r13	
    8716:	f9 2b       	jnc	$-12     	;abs 0x870a
    8718:	30 41       	ret			

0000871a <flash_write>:
    871a:	3c 40 00 10 	mov	#4096,	r12	;#0x1000
    871e:	b2 40 00 a5 	mov	#-23296,&0x012c	;#0xa500
    8722:	2c 01 
    8724:	b2 40 40 a5 	mov	#-23232,&0x0128	;#0xa540
    8728:	28 01 
    872a:	4d 43       	clr.b	r13		
    872c:	4d 9e       	cmp.b	r14,	r13	
    872e:	07 2c       	jc	$+16     	;abs 0x873e
    8730:	ec 4f 00 00 	mov.b	@r15,	0(r12)	;0x0000(r12)
    8734:	1f 53       	inc	r15		
    8736:	1c 53       	inc	r12		
    8738:	5d 53       	inc.b	r13		
    873a:	4d 9e       	cmp.b	r14,	r13	
    873c:	f9 2b       	jnc	$-12     	;abs 0x8730
    873e:	b2 40 00 a5 	mov	#-23296,&0x0128	;#0xa500
    8742:	28 01 
    8744:	b2 40 10 a5 	mov	#-23280,&0x012c	;#0xa510
    8748:	2c 01 
    874a:	30 41       	ret			

0000874c <gauge_init>:
    874c:	82 43 da 12 	mov	#0,	&0x12da	;r3 As==00
    8750:	82 43 dc 12 	mov	#0,	&0x12dc	;r3 As==00
    8754:	82 43 de 12 	mov	#0,	&0x12de	;r3 As==00
    8758:	82 43 e0 12 	mov	#0,	&0x12e0	;r3 As==00
    875c:	b2 d0 00 10 	bis	#4096,	&0x110c	;#0x1000
    8760:	0c 11 
    8762:	b2 d0 00 20 	bis	#8192,	&0x110c	;#0x2000
    8766:	0c 11 
    8768:	b2 d0 00 40 	bis	#16384,	&0x110c	;#0x4000
    876c:	0c 11 
    876e:	b2 d0 00 80 	bis	#-32768,&0x110c	;#0x8000
    8772:	0c 11 
    8774:	30 41       	ret			

00008776 <gauge_tach_update>:
    8776:	0b 12       	push	r11		
    8778:	0a 12       	push	r10		
    877a:	0a 4e       	mov	r14,	r10	
    877c:	0b 4f       	mov	r15,	r11	
    877e:	0c 43       	clr	r12		
    8780:	0d 43       	clr	r13		
    8782:	b0 12 a6 a1 	call	#0xa1a6	
    8786:	0f 93       	tst	r15		
    8788:	27 38       	jl	$+80     	;abs 0x87d8
    878a:	3c 40 00 c0 	mov	#-16384,r12	;#0xc000
    878e:	3d 40 da 45 	mov	#17882,	r13	;#0x45da
    8792:	0e 4a       	mov	r10,	r14	
    8794:	0f 4b       	mov	r11,	r15	
    8796:	b0 12 e2 a0 	call	#0xa0e2	
    879a:	1f 93       	cmp	#1,	r15	;r3 As==01
    879c:	04 38       	jl	$+10     	;abs 0x87a6
    879e:	3a 40 00 c0 	mov	#-16384,r10	;#0xc000
    87a2:	3b 40 da 45 	mov	#17882,	r11	;#0x45da
    87a6:	0c 43       	clr	r12		
    87a8:	3d 40 c8 42 	mov	#17096,	r13	;#0x42c8
    87ac:	0e 4a       	mov	r10,	r14	
    87ae:	0f 4b       	mov	r11,	r15	
    87b0:	b0 12 a6 a1 	call	#0xa1a6	
    87b4:	0f 93       	tst	r15		
    87b6:	0d 38       	jl	$+28     	;abs 0x87d2
    87b8:	0c 4a       	mov	r10,	r12	
    87ba:	0d 4b       	mov	r11,	r13	
    87bc:	3e 40 00 50 	mov	#20480,	r14	;#0x5000
    87c0:	3f 40 43 48 	mov	#18499,	r15	;#0x4843
    87c4:	b0 12 70 9f 	call	#0x9f70	
    87c8:	b0 12 0a 9a 	call	#0x9a0a	
    87cc:	82 4e da 12 	mov	r14,	&0x12da	
    87d0:	06 3c       	jmp	$+14     	;abs 0x87de
    87d2:	82 43 da 12 	mov	#0,	&0x12da	;r3 As==00
    87d6:	03 3c       	jmp	$+8      	;abs 0x87de
    87d8:	3b e0 00 80 	xor	#-32768,r11	;#0x8000
    87dc:	d6 3f       	jmp	$-82     	;abs 0x878a
    87de:	b2 d0 00 10 	bis	#4096,	&0x110c	;#0x1000
    87e2:	0c 11 
    87e4:	3a 41       	pop	r10		
    87e6:	3b 41       	pop	r11		
    87e8:	30 41       	ret			

000087ea <gauge_power_update>:
    87ea:	0b 12       	push	r11		
    87ec:	0a 12       	push	r10		
    87ee:	b0 12 06 9d 	call	#0x9d06	
    87f2:	0c 43       	clr	r12		
    87f4:	3d 40 7a 44 	mov	#17530,	r13	;#0x447a
    87f8:	b0 12 70 9f 	call	#0x9f70	
    87fc:	0a 4e       	mov	r14,	r10	
    87fe:	0b 4f       	mov	r15,	r11	
    8800:	0c 43       	clr	r12		
    8802:	3d 40 82 43 	mov	#17282,	r13	;#0x4382
    8806:	b0 12 e2 a0 	call	#0xa0e2	
    880a:	1f 93       	cmp	#1,	r15	;r3 As==01
    880c:	03 38       	jl	$+8      	;abs 0x8814
    880e:	0a 43       	clr	r10		
    8810:	3b 40 82 43 	mov	#17282,	r11	;#0x4382
    8814:	0c 43       	clr	r12		
    8816:	3d 40 20 41 	mov	#16672,	r13	;#0x4120
    881a:	0e 4a       	mov	r10,	r14	
    881c:	0f 4b       	mov	r11,	r15	
    881e:	b0 12 a6 a1 	call	#0xa1a6	
    8822:	0f 93       	tst	r15		
    8824:	0c 38       	jl	$+26     	;abs 0x883e
    8826:	0c 4a       	mov	r10,	r12	
    8828:	0d 4b       	mov	r11,	r13	
    882a:	0e 43       	clr	r14		
    882c:	3f 40 fa 45 	mov	#17914,	r15	;#0x45fa
    8830:	b0 12 70 9f 	call	#0x9f70	
    8834:	b0 12 0a 9a 	call	#0x9a0a	
    8838:	82 4e dc 12 	mov	r14,	&0x12dc	
    883c:	02 3c       	jmp	$+6      	;abs 0x8842
    883e:	82 43 dc 12 	mov	#0,	&0x12dc	;r3 As==00
    8842:	b2 d0 00 20 	bis	#8192,	&0x110c	;#0x2000
    8846:	0c 11 
    8848:	3a 41       	pop	r10		
    884a:	3b 41       	pop	r11		
    884c:	30 41       	ret			

0000884e <gauge_temp_update>:
    884e:	0e 4c       	mov	r12,	r14	
    8850:	0f 4d       	mov	r13,	r15	
    8852:	3c 40 71 3d 	mov	#15729,	r12	;#0x3d71
    8856:	3d 40 aa 3f 	mov	#16298,	r13	;#0x3faa
    885a:	b0 12 06 9d 	call	#0x9d06	
    885e:	b0 12 0a 9a 	call	#0x9a0a	
    8862:	3e 90 c9 00 	cmp	#201,	r14	;#0x00c9
    8866:	02 28       	jnc	$+6      	;abs 0x886c
    8868:	3e 40 c8 00 	mov	#200,	r14	;#0x00c8
    886c:	82 4e de 12 	mov	r14,	&0x12de	
    8870:	b2 d0 00 40 	bis	#16384,	&0x110c	;#0x4000
    8874:	0c 11 
    8876:	30 41       	ret			

00008878 <gauge_fuel_update>:
    8878:	3c 40 cd cc 	mov	#-13107,r12	;#0xcccd
    887c:	3d 40 cc 3e 	mov	#16076,	r13	;#0x3ecc
    8880:	b0 12 06 9d 	call	#0x9d06	
    8884:	b0 12 0a 9a 	call	#0x9a0a	
    8888:	3e 90 c9 00 	cmp	#201,	r14	;#0x00c9
    888c:	02 28       	jnc	$+6      	;abs 0x8892
    888e:	3e 40 c8 00 	mov	#200,	r14	;#0x00c8
    8892:	82 4e e0 12 	mov	r14,	&0x12e0	
    8896:	b2 d0 00 80 	bis	#-32768,&0x110c	;#0x8000
    889a:	0c 11 
    889c:	30 41       	ret			

0000889e <process_pedal>:
    889e:	0b 12       	push	r11		
    88a0:	0a 12       	push	r10		
    88a2:	09 12       	push	r9		
    88a4:	08 12       	push	r8		
    88a6:	07 12       	push	r7		
    88a8:	0b 4f       	mov	r15,	r11	
    88aa:	0a 4d       	mov	r13,	r10	
    88ac:	3f 40 ee 12 	mov	#4846,	r15	;#0x12ee
    88b0:	6d 4f       	mov.b	@r15,	r13	
    88b2:	4e 4d       	mov.b	r13,	r14	
    88b4:	5e c3       	bic.b	#1,	r14	;r3 As==01
    88b6:	cf 4e 00 00 	mov.b	r14,	0(r15)	;0x0000(r15)
    88ba:	3b 90 01 10 	cmp	#4097,	r11	;#0x1001
    88be:	cc 28       	jnc	$+410    	;abs 0x8a58
    88c0:	6e d3       	bis.b	#2,	r14	;r3 As==10
    88c2:	c2 4e ee 12 	mov.b	r14,	&0x12ee	
    88c6:	3f 40 ee 12 	mov	#4846,	r15	;#0x12ee
    88ca:	6d 4f       	mov.b	@r15,	r13	
    88cc:	4e 4d       	mov.b	r13,	r14	
    88ce:	7e f0 ef ff 	and.b	#-17,	r14	;#0xffef
    88d2:	cf 4e 00 00 	mov.b	r14,	0(r15)	;0x0000(r15)
    88d6:	3a 90 01 10 	cmp	#4097,	r10	;#0x1001
    88da:	b9 28       	jnc	$+372    	;abs 0x8a4e
    88dc:	7e d0 20 00 	bis.b	#32,	r14	;#0x0020
    88e0:	c2 4e ee 12 	mov.b	r14,	&0x12ee	
    88e4:	c2 93 ee 12 	tst.b	&0x12ee	
    88e8:	7e 20       	jnz	$+254    	;abs 0x89e6
    88ea:	3b 90 65 00 	cmp	#101,	r11	;#0x0065
    88ee:	ac 28       	jnc	$+346    	;abs 0x8a48
    88f0:	3b 50 9c ff 	add	#-100,	r11	;#0xff9c
    88f4:	0e 4b       	mov	r11,	r14	
    88f6:	0f 4e       	mov	r14,	r15	
    88f8:	0f 5f       	rla	r15		
    88fa:	0f 7f       	subc	r15,	r15	
    88fc:	3f e3       	inv	r15		
    88fe:	b0 12 6a a2 	call	#0xa26a	
    8902:	07 4e       	mov	r14,	r7	
    8904:	08 4f       	mov	r15,	r8	
    8906:	0b 93       	tst	r11		
    8908:	97 38       	jl	$+304    	;abs 0x8a38
    890a:	3c 40 00 80 	mov	#-32768,r12	;#0x8000
    890e:	3d 40 73 45 	mov	#17779,	r13	;#0x4573
    8912:	0e 47       	mov	r7,	r14	
    8914:	0f 48       	mov	r8,	r15	
    8916:	b0 12 70 9f 	call	#0x9f70	
    891a:	07 4e       	mov	r14,	r7	
    891c:	08 4f       	mov	r15,	r8	
    891e:	0c 43       	clr	r12		
    8920:	3d 40 80 3f 	mov	#16256,	r13	;#0x3f80
    8924:	b0 12 e2 a0 	call	#0xa0e2	
    8928:	1f 93       	cmp	#1,	r15	;r3 As==01
    892a:	03 38       	jl	$+8      	;abs 0x8932
    892c:	07 43       	clr	r7		
    892e:	38 40 80 3f 	mov	#16256,	r8	;#0x3f80
    8932:	3a 90 65 00 	cmp	#101,	r10	;#0x0065
    8936:	7d 28       	jnc	$+252    	;abs 0x8a32
    8938:	0b 4a       	mov	r10,	r11	
    893a:	3b 50 9c ff 	add	#-100,	r11	;#0xff9c
    893e:	0e 4b       	mov	r11,	r14	
    8940:	0f 4e       	mov	r14,	r15	
    8942:	0f 5f       	rla	r15		
    8944:	0f 7f       	subc	r15,	r15	
    8946:	3f e3       	inv	r15		
    8948:	b0 12 6a a2 	call	#0xa26a	
    894c:	09 4e       	mov	r14,	r9	
    894e:	0a 4f       	mov	r15,	r10	
    8950:	0b 93       	tst	r11		
    8952:	67 38       	jl	$+208    	;abs 0x8a22
    8954:	3c 40 cd cc 	mov	#-13107,r12	;#0xcccd
    8958:	3d 40 4c 3e 	mov	#15948,	r13	;#0x3e4c
    895c:	0e 49       	mov	r9,	r14	
    895e:	0f 4a       	mov	r10,	r15	
    8960:	b0 12 06 9d 	call	#0x9d06	
    8964:	3c 40 00 80 	mov	#-32768,r12	;#0x8000
    8968:	3d 40 73 45 	mov	#17779,	r13	;#0x4573
    896c:	b0 12 70 9f 	call	#0x9f70	
    8970:	09 4e       	mov	r14,	r9	
    8972:	0a 4f       	mov	r15,	r10	
    8974:	3c 40 cd cc 	mov	#-13107,r12	;#0xcccd
    8978:	3d 40 4c 3e 	mov	#15948,	r13	;#0x3e4c
    897c:	b0 12 e2 a0 	call	#0xa0e2	
    8980:	1f 93       	cmp	#1,	r15	;r3 As==01
    8982:	04 38       	jl	$+10     	;abs 0x898c
    8984:	39 40 cd cc 	mov	#-13107,r9	;#0xcccd
    8988:	3a 40 4c 3e 	mov	#15948,	r10	;#0x3e4c
    898c:	5f 42 ef 12 	mov.b	&0x12ef,r15	
    8990:	3f 90 0a 00 	cmp	#10,	r15	;#0x000a
    8994:	28 2c       	jc	$+82     	;abs 0x89e6
    8996:	0f 5f       	rla	r15		
    8998:	10 4f 9c 89 	br	-30308(r15)	;0x899c(r15)
    899c:	e6 89 e6 89 	sub.b	@r9,	-30234(r6);0x89e6(r6)
    89a0:	e6 89 b0 89 	sub.b	@r9,	-30288(r6);0x89b0(r6)
    89a4:	e6 89 fc 89 	sub.b	@r9,	-30212(r6);0x89fc(r6)
    89a8:	fc 89 e6 89 	sub.b	@r9+,	-30234(r12);0x89e6(r12)
    89ac:	fc 89 fc 89 	sub.b	@r9+,	-30212(r12);0x89fc(r12)
    89b0:	0c 43       	clr	r12		
    89b2:	0d 43       	clr	r13		
    89b4:	0e 49       	mov	r9,	r14	
    89b6:	0f 4a       	mov	r10,	r15	
    89b8:	b0 12 08 a2 	call	#0xa208	
    89bc:	1f 93       	cmp	#1,	r15	;r3 As==01
    89be:	09 38       	jl	$+20     	;abs 0x89d2
    89c0:	82 49 e6 12 	mov	r9,	&0x12e6	
    89c4:	82 4a e8 12 	mov	r10,	&0x12e8	
    89c8:	82 43 e2 12 	mov	#0,	&0x12e2	;r3 As==00
    89cc:	82 43 e4 12 	mov	#0,	&0x12e4	;r3 As==00
    89d0:	48 3c       	jmp	$+146    	;abs 0x8a62
    89d2:	82 47 e6 12 	mov	r7,	&0x12e6	
    89d6:	82 48 e8 12 	mov	r8,	&0x12e8	
    89da:	82 43 e2 12 	mov	#0,	&0x12e2	;r3 As==00
    89de:	b2 40 7a c4 	mov	#-15238,&0x12e4	;#0xc47a
    89e2:	e4 12 
    89e4:	3e 3c       	jmp	$+126    	;abs 0x8a62
    89e6:	3f 40 e6 12 	mov	#4838,	r15	;#0x12e6
    89ea:	8f 43 00 00 	mov	#0,	0(r15)	;r3 As==00, 0x0000(r15)
    89ee:	8f 43 02 00 	mov	#0,	2(r15)	;r3 As==00, 0x0002(r15)
    89f2:	b2 4f e2 12 	mov	@r15+,	&0x12e2	
    89f6:	b2 4f e4 12 	mov	@r15+,	&0x12e4	
    89fa:	33 3c       	jmp	$+104    	;abs 0x8a62
    89fc:	0c 43       	clr	r12		
    89fe:	0d 43       	clr	r13		
    8a00:	0e 49       	mov	r9,	r14	
    8a02:	0f 4a       	mov	r10,	r15	
    8a04:	b0 12 08 a2 	call	#0xa208	
    8a08:	1f 93       	cmp	#1,	r15	;r3 As==01
    8a0a:	da 37       	jge	$-74     	;abs 0x89c0
    8a0c:	82 47 e6 12 	mov	r7,	&0x12e6	
    8a10:	82 48 e8 12 	mov	r8,	&0x12e8	
    8a14:	b2 40 00 40 	mov	#16384,	&0x12e2	;#0x4000
    8a18:	e2 12 
    8a1a:	b2 40 83 45 	mov	#17795,	&0x12e4	;#0x4583
    8a1e:	e4 12 
    8a20:	20 3c       	jmp	$+66     	;abs 0x8a62
    8a22:	0c 43       	clr	r12		
    8a24:	3d 40 80 47 	mov	#18304,	r13	;#0x4780
    8a28:	b0 12 6a 9c 	call	#0x9c6a	
    8a2c:	09 4e       	mov	r14,	r9	
    8a2e:	0a 4f       	mov	r15,	r10	
    8a30:	91 3f       	jmp	$-220    	;abs 0x8954
    8a32:	09 43       	clr	r9		
    8a34:	0a 43       	clr	r10		
    8a36:	8e 3f       	jmp	$-226    	;abs 0x8954
    8a38:	0c 43       	clr	r12		
    8a3a:	3d 40 80 47 	mov	#18304,	r13	;#0x4780
    8a3e:	b0 12 6a 9c 	call	#0x9c6a	
    8a42:	07 4e       	mov	r14,	r7	
    8a44:	08 4f       	mov	r15,	r8	
    8a46:	61 3f       	jmp	$-316    	;abs 0x890a
    8a48:	07 43       	clr	r7		
    8a4a:	08 43       	clr	r8		
    8a4c:	5e 3f       	jmp	$-322    	;abs 0x890a
    8a4e:	7d f0 cf ff 	and.b	#-49,	r13	;#0xffcf
    8a52:	c2 4d ee 12 	mov.b	r13,	&0x12ee	
    8a56:	46 3f       	jmp	$-370    	;abs 0x88e4
    8a58:	7d f0 fc ff 	and.b	#-4,	r13	;#0xfffc
    8a5c:	c2 4d ee 12 	mov.b	r13,	&0x12ee	
    8a60:	32 3f       	jmp	$-410    	;abs 0x88c6
    8a62:	37 41       	pop	r7		
    8a64:	38 41       	pop	r8		
    8a66:	39 41       	pop	r9		
    8a68:	3a 41       	pop	r10		
    8a6a:	3b 41       	pop	r11		
    8a6c:	30 41       	ret			

00008a6e <switch_init>:
    8a6e:	30 41       	ret			

00008a70 <switch_update>:
    8a70:	0c 4f       	mov	r15,	r12	
    8a72:	f2 b2 28 00 	bit.b	#8,	&0x0028	;r2 As==11
    8a76:	ce 24       	jz	$+414    	;abs 0x8c14
    8a78:	d2 53 02 11 	inc.b	&0x1102	
    8a7c:	e2 b2 28 00 	bit.b	#4,	&0x0028	;r2 As==10
    8a80:	c6 24       	jz	$+398    	;abs 0x8c0e
    8a82:	d2 53 03 11 	inc.b	&0x1103	
    8a86:	e2 b3 28 00 	bit.b	#2,	&0x0028	;r3 As==10
    8a8a:	be 24       	jz	$+382    	;abs 0x8c08
    8a8c:	d2 53 04 11 	inc.b	&0x1104	
    8a90:	d2 b3 28 00 	bit.b	#1,	&0x0028	;r3 As==01
    8a94:	b6 24       	jz	$+366    	;abs 0x8c02
    8a96:	d2 53 05 11 	inc.b	&0x1105	
    8a9a:	f2 b0 10 00 	bit.b	#16,	&0x0020	;#0x0010
    8a9e:	20 00 
    8aa0:	ad 24       	jz	$+348    	;abs 0x8bfc
    8aa2:	f2 53 06 11 	add.b	#-1,	&0x1106	;r3 As==11
    8aa6:	f2 b2 20 00 	bit.b	#8,	&0x0020	;r2 As==11
    8aaa:	a5 24       	jz	$+332    	;abs 0x8bf6
    8aac:	f2 53 07 11 	add.b	#-1,	&0x1107	;r3 As==11
    8ab0:	e2 b2 20 00 	bit.b	#4,	&0x0020	;r2 As==10
    8ab4:	9d 24       	jz	$+316    	;abs 0x8bf0
    8ab6:	f2 53 08 11 	add.b	#-1,	&0x1108	;r3 As==11
    8aba:	e2 b3 20 00 	bit.b	#2,	&0x0020	;r3 As==10
    8abe:	95 24       	jz	$+300    	;abs 0x8bea
    8ac0:	f2 53 09 11 	add.b	#-1,	&0x1109	;r3 As==11
    8ac4:	d2 b3 20 00 	bit.b	#1,	&0x0020	;r3 As==01
    8ac8:	8d 24       	jz	$+284    	;abs 0x8be4
    8aca:	d2 53 0a 11 	inc.b	&0x110a	
    8ace:	4d 43       	clr.b	r13		
    8ad0:	3e 40 02 11 	mov	#4354,	r14	;#0x1102
    8ad4:	6f 4e       	mov.b	@r14,	r15	
    8ad6:	7f 90 06 00 	cmp.b	#6,	r15	;#0x0006
    8ada:	7f 38       	jl	$+256    	;abs 0x8bda
    8adc:	fe 40 05 00 	mov.b	#5,	0(r14)	;#0x0005, 0x0000(r14)
    8ae0:	00 00 
    8ae2:	1e 53       	inc	r14		
    8ae4:	5d 53       	inc.b	r13		
    8ae6:	7d 90 09 00 	cmp.b	#9,	r13	;#0x0009
    8aea:	f4 2b       	jnc	$-22     	;abs 0x8ad4
    8aec:	5f 42 02 11 	mov.b	&0x1102,r15	
    8af0:	7f 90 05 00 	cmp.b	#5,	r15	;#0x0005
    8af4:	6f 24       	jz	$+224    	;abs 0x8bd4
    8af6:	4f 93       	tst.b	r15		
    8af8:	02 20       	jnz	$+6      	;abs 0x8afe
    8afa:	9c c3 00 00 	bic	#1,	0(r12)	;r3 As==01, 0x0000(r12)
    8afe:	5f 42 03 11 	mov.b	&0x1103,r15	
    8b02:	7f 90 05 00 	cmp.b	#5,	r15	;#0x0005
    8b06:	63 24       	jz	$+200    	;abs 0x8bce
    8b08:	4f 93       	tst.b	r15		
    8b0a:	02 20       	jnz	$+6      	;abs 0x8b10
    8b0c:	ac c3 00 00 	bic	#2,	0(r12)	;r3 As==10, 0x0000(r12)
    8b10:	5f 42 04 11 	mov.b	&0x1104,r15	
    8b14:	7f 90 05 00 	cmp.b	#5,	r15	;#0x0005
    8b18:	57 24       	jz	$+176    	;abs 0x8bc8
    8b1a:	4f 93       	tst.b	r15		
    8b1c:	02 20       	jnz	$+6      	;abs 0x8b22
    8b1e:	ac c2 00 00 	bic	#4,	0(r12)	;r2 As==10, 0x0000(r12)
    8b22:	5f 42 05 11 	mov.b	&0x1105,r15	
    8b26:	7f 90 05 00 	cmp.b	#5,	r15	;#0x0005
    8b2a:	4b 24       	jz	$+152    	;abs 0x8bc2
    8b2c:	4f 93       	tst.b	r15		
    8b2e:	02 20       	jnz	$+6      	;abs 0x8b34
    8b30:	bc c2 00 00 	bic	#8,	0(r12)	;r2 As==11, 0x0000(r12)
    8b34:	5f 42 06 11 	mov.b	&0x1106,r15	
    8b38:	7f 90 05 00 	cmp.b	#5,	r15	;#0x0005
    8b3c:	3e 24       	jz	$+126    	;abs 0x8bba
    8b3e:	4f 93       	tst.b	r15		
    8b40:	03 20       	jnz	$+8      	;abs 0x8b48
    8b42:	bc f0 ef ff 	and	#-17,	0(r12)	;#0xffef, 0x0000(r12)
    8b46:	00 00 
    8b48:	5f 42 07 11 	mov.b	&0x1107,r15	
    8b4c:	7f 90 05 00 	cmp.b	#5,	r15	;#0x0005
    8b50:	30 24       	jz	$+98     	;abs 0x8bb2
    8b52:	4f 93       	tst.b	r15		
    8b54:	03 20       	jnz	$+8      	;abs 0x8b5c
    8b56:	bc f0 df ff 	and	#-33,	0(r12)	;#0xffdf, 0x0000(r12)
    8b5a:	00 00 
    8b5c:	5f 42 08 11 	mov.b	&0x1108,r15	
    8b60:	7f 90 05 00 	cmp.b	#5,	r15	;#0x0005
    8b64:	22 24       	jz	$+70     	;abs 0x8baa
    8b66:	4f 93       	tst.b	r15		
    8b68:	03 20       	jnz	$+8      	;abs 0x8b70
    8b6a:	bc f0 bf ff 	and	#-65,	0(r12)	;#0xffbf, 0x0000(r12)
    8b6e:	00 00 
    8b70:	5f 42 09 11 	mov.b	&0x1109,r15	
    8b74:	7f 90 05 00 	cmp.b	#5,	r15	;#0x0005
    8b78:	14 24       	jz	$+42     	;abs 0x8ba2
    8b7a:	4f 93       	tst.b	r15		
    8b7c:	03 20       	jnz	$+8      	;abs 0x8b84
    8b7e:	bc f0 7f ff 	and	#-129,	0(r12)	;#0xff7f, 0x0000(r12)
    8b82:	00 00 
    8b84:	5f 42 0a 11 	mov.b	&0x110a,r15	
    8b88:	7f 90 05 00 	cmp.b	#5,	r15	;#0x0005
    8b8c:	06 24       	jz	$+14     	;abs 0x8b9a
    8b8e:	4f 93       	tst.b	r15		
    8b90:	03 20       	jnz	$+8      	;abs 0x8b98
    8b92:	bc f0 ff fe 	and	#-257,	0(r12)	;#0xfeff, 0x0000(r12)
    8b96:	00 00 
    8b98:	30 41       	ret			
    8b9a:	bc d0 00 01 	bis	#256,	0(r12)	;#0x0100, 0x0000(r12)
    8b9e:	00 00 
    8ba0:	30 41       	ret			
    8ba2:	bc d0 80 00 	bis	#128,	0(r12)	;#0x0080, 0x0000(r12)
    8ba6:	00 00 
    8ba8:	ed 3f       	jmp	$-36     	;abs 0x8b84
    8baa:	bc d0 40 00 	bis	#64,	0(r12)	;#0x0040, 0x0000(r12)
    8bae:	00 00 
    8bb0:	df 3f       	jmp	$-64     	;abs 0x8b70
    8bb2:	bc d0 20 00 	bis	#32,	0(r12)	;#0x0020, 0x0000(r12)
    8bb6:	00 00 
    8bb8:	d1 3f       	jmp	$-92     	;abs 0x8b5c
    8bba:	bc d0 10 00 	bis	#16,	0(r12)	;#0x0010, 0x0000(r12)
    8bbe:	00 00 
    8bc0:	c3 3f       	jmp	$-120    	;abs 0x8b48
    8bc2:	bc d2 00 00 	bis	#8,	0(r12)	;r2 As==11, 0x0000(r12)
    8bc6:	b6 3f       	jmp	$-146    	;abs 0x8b34
    8bc8:	ac d2 00 00 	bis	#4,	0(r12)	;r2 As==10, 0x0000(r12)
    8bcc:	aa 3f       	jmp	$-170    	;abs 0x8b22
    8bce:	ac d3 00 00 	bis	#2,	0(r12)	;r3 As==10, 0x0000(r12)
    8bd2:	9e 3f       	jmp	$-194    	;abs 0x8b10
    8bd4:	9c d3 00 00 	bis	#1,	0(r12)	;r3 As==01, 0x0000(r12)
    8bd8:	92 3f       	jmp	$-218    	;abs 0x8afe
    8bda:	4f 93       	tst.b	r15		
    8bdc:	82 37       	jge	$-250    	;abs 0x8ae2
    8bde:	ce 43 00 00 	mov.b	#0,	0(r14)	;r3 As==00, 0x0000(r14)
    8be2:	7f 3f       	jmp	$-256    	;abs 0x8ae2
    8be4:	f2 53 0a 11 	add.b	#-1,	&0x110a	;r3 As==11
    8be8:	72 3f       	jmp	$-282    	;abs 0x8ace
    8bea:	d2 53 09 11 	inc.b	&0x1109	
    8bee:	6a 3f       	jmp	$-298    	;abs 0x8ac4
    8bf0:	d2 53 08 11 	inc.b	&0x1108	
    8bf4:	62 3f       	jmp	$-314    	;abs 0x8aba
    8bf6:	d2 53 07 11 	inc.b	&0x1107	
    8bfa:	5a 3f       	jmp	$-330    	;abs 0x8ab0
    8bfc:	d2 53 06 11 	inc.b	&0x1106	
    8c00:	52 3f       	jmp	$-346    	;abs 0x8aa6
    8c02:	f2 53 05 11 	add.b	#-1,	&0x1105	;r3 As==11
    8c06:	49 3f       	jmp	$-364    	;abs 0x8a9a
    8c08:	f2 53 04 11 	add.b	#-1,	&0x1104	;r3 As==11
    8c0c:	41 3f       	jmp	$-380    	;abs 0x8a90
    8c0e:	f2 53 03 11 	add.b	#-1,	&0x1103	;r3 As==11
    8c12:	39 3f       	jmp	$-396    	;abs 0x8a86
    8c14:	f2 53 02 11 	add.b	#-1,	&0x1102	;r3 As==11
    8c18:	31 3f       	jmp	$-412    	;abs 0x8a7c

00008c1a <main>:
    8c1a:	31 40 00 21 	mov	#8448,	r1	;#0x2100
    8c1e:	56 43       	mov.b	#1,	r6	;r3 As==01
    8c20:	0a 43       	clr	r10		
    8c22:	77 40 14 00 	mov.b	#20,	r7	;#0x0014
    8c26:	b2 40 80 5a 	mov	#23168,	&0x0120	;#0x5a80
    8c2a:	20 01 
    8c2c:	b0 12 38 96 	call	#0x9638	
    8c30:	b0 12 2a 96 	call	#0x962a	
    8c34:	b0 12 6c 98 	call	#0x986c	
    8c38:	b0 12 e0 86 	call	#0x86e0	
    8c3c:	7e 42       	mov.b	#8,	r14	;r2 As==11
    8c3e:	3f 40 d2 12 	mov	#4818,	r15	;#0x12d2
    8c42:	b0 12 00 87 	call	#0x8700	
    8c46:	1e 42 d2 12 	mov	&0x12d2,r14	
    8c4a:	1f 42 d4 12 	mov	&0x12d4,r15	
    8c4e:	3e 93       	cmp	#-1,	r14	;r3 As==11
    8c50:	02 20       	jnz	$+6      	;abs 0x8c56
    8c52:	3f 93       	cmp	#-1,	r15	;r3 As==11
    8c54:	0a 24       	jz	$+22     	;abs 0x8c6a
    8c56:	0f de       	bis	r14,	r15	
    8c58:	0f 93       	tst	r15		
    8c5a:	07 24       	jz	$+16     	;abs 0x8c6a
    8c5c:	1f 42 d6 12 	mov	&0x12d6,r15	
    8c60:	3f 90 e1 07 	cmp	#2017,	r15	;#0x07e1
    8c64:	02 2c       	jc	$+6      	;abs 0x8c6a
    8c66:	30 40 1e 96 	br	#0x961e	
    8c6a:	b2 40 00 05 	mov	#1280,	&0x12d6	;#0x0500
    8c6e:	d6 12 
    8c70:	b2 40 00 05 	mov	#1280,	&0x12f0	;#0x0500
    8c74:	f0 12 
    8c76:	a2 42 d8 12 	mov	#4,	&0x12d8	;r2 As==10
    8c7a:	4f 43       	clr.b	r15		
    8c7c:	b0 12 1e 98 	call	#0x981e	
    8c80:	1f 42 d8 12 	mov	&0x12d8,r15	
    8c84:	b0 12 46 80 	call	#0x8046	
    8c88:	b2 d0 80 00 	bis	#128,	&0x110c	;#0x0080
    8c8c:	0c 11 
    8c8e:	b0 12 74 96 	call	#0x9674	
    8c92:	b0 12 8e 96 	call	#0x968e	
    8c96:	b0 12 c2 96 	call	#0x96c2	
    8c9a:	3f 40 00 11 	mov	#4352,	r15	;#0x1100
    8c9e:	b0 12 6e 8a 	call	#0x8a6e	
    8ca2:	82 43 e2 12 	mov	#0,	&0x12e2	;r3 As==00
    8ca6:	82 43 e4 12 	mov	#0,	&0x12e4	;r3 As==00
    8caa:	92 42 e2 12 	mov	&0x12e2,&0x12e6	
    8cae:	e6 12 
    8cb0:	92 42 e4 12 	mov	&0x12e4,&0x12e8	
    8cb4:	e8 12 
    8cb6:	82 43 ea 12 	mov	#0,	&0x12ea	;r3 As==00
    8cba:	b2 40 80 3f 	mov	#16256,	&0x12ec	;#0x3f80
    8cbe:	ec 12 
    8cc0:	c2 43 ee 12 	mov.b	#0,	&0x12ee	;r3 As==00
    8cc4:	c2 43 ef 12 	mov.b	#0,	&0x12ef	;r3 As==00
    8cc8:	b0 12 4c 87 	call	#0x874c	
    8ccc:	32 d2       	eint			
    8cce:	b0 12 da 83 	call	#0x83da	
    8cd2:	92 b3 0c 11 	bit	#1,	&0x110c	;r3 As==01
    8cd6:	04 24       	jz	$+10     	;abs 0x8ce0
    8cd8:	92 c3 0c 11 	bic	#1,	&0x110c	;r3 As==01
    8cdc:	92 d3 a0 01 	bis	#1,	&0x01a0	;r3 As==01
    8ce0:	b2 b2 0c 11 	bit	#8,	&0x110c	;r2 As==11
    8ce4:	53 24       	jz	$+168    	;abs 0x8d8c
    8ce6:	b2 c2 0c 11 	bic	#8,	&0x110c	;r2 As==11
    8cea:	5c 43       	mov.b	#1,	r12	;r3 As==01
    8cec:	1d 42 44 01 	mov	&0x0144,r13	
    8cf0:	1e 42 42 01 	mov	&0x0142,r14	
    8cf4:	1f 42 40 01 	mov	&0x0140,r15	
    8cf8:	b0 12 9e 88 	call	#0x889e	
    8cfc:	3f 40 00 11 	mov	#4352,	r15	;#0x1100
    8d00:	b0 12 70 8a 	call	#0x8a70	
    8d04:	5f 42 ef 12 	mov.b	&0x12ef,r15	
    8d08:	3f 90 0f 00 	cmp	#15,	r15	;#0x000f
    8d0c:	02 28       	jnc	$+6      	;abs 0x8d12
    8d0e:	30 40 b8 93 	br	#0x93b8	
    8d12:	0f 5f       	rla	r15		
    8d14:	10 4f 18 8d 	br	-29416(r15)	;0x8d18(r15)
    8d18:	36 8d       	sub	@r13+,	r6	
    8d1a:	b8 93 b8 93 	cmp	#-1,	-27720(r8);r3 As==11, 0x93b8(r8)
    8d1e:	be 93 14 94 	cmp	#-1,	-27628(r14);r3 As==11, 0x9414(r14)
    8d22:	76 94       	cmp.b	@r4+,	r6	
    8d24:	cc 94 22 95 	cmp.b	r4,	-27358(r12);0x9522(r12)
    8d28:	54 95 7a 95 	cmp.b	-27270(r5),r4	;0x957a(r5)
    8d2c:	a0 95 a0 95 	cmp	@r5,	0x95a0	;PC rel. 0x022d0
    8d30:	a0 95 a0 95 	cmp	@r5,	0x95a0	;PC rel. 0x022d4
    8d34:	a0 95 6f 42 	cmp	@r5,	0x426f	;PC rel. 0x0cfa7
    8d38:	f2 f0 0f 00 	and.b	#15,	&0x0031	;#0x000f
    8d3c:	31 00 
    8d3e:	1e 42 00 11 	mov	&0x1100,r14	
    8d42:	c2 4f ef 12 	mov.b	r15,	&0x12ef	
    8d46:	c2 93 00 11 	tst.b	&0x1100	
    8d4a:	05 38       	jl	$+12     	;abs 0x8d56
    8d4c:	a2 b2 0c 11 	bit	#4,	&0x110c	;r2 As==10
    8d50:	02 20       	jnz	$+6      	;abs 0x8d56
    8d52:	30 40 ae 93 	br	#0x93ae	
    8d56:	f2 d0 20 00 	bis.b	#32,	&0x0021	;#0x0020
    8d5a:	21 00 
    8d5c:	f2 90 03 00 	cmp.b	#3,	&0x12ef	;#0x0003
    8d60:	ef 12 
    8d62:	02 20       	jnz	$+6      	;abs 0x8d68
    8d64:	30 40 a4 93 	br	#0x93a4	
    8d68:	f2 f0 bf ff 	and.b	#-65,	&0x0021	;#0xffbf
    8d6c:	21 00 
    8d6e:	f2 d0 80 ff 	bis.b	#-128,	&0x0021	;#0xff80
    8d72:	21 00 
    8d74:	d2 d3 35 00 	bis.b	#1,	&0x0035	;r3 As==01
    8d78:	f2 d2 31 00 	bis.b	#8,	&0x0031	;r2 As==11
    8d7c:	3e b0 00 f0 	bit	#-4096,	r14	;#0xf000
    8d80:	02 20       	jnz	$+6      	;abs 0x8d86
    8d82:	30 40 9a 93 	br	#0x939a	
    8d86:	f2 f0 bf ff 	and.b	#-65,	&0x0019	;#0xffbf
    8d8a:	19 00 
    8d8c:	a2 b3 0c 11 	bit	#2,	&0x110c	;r3 As==10
    8d90:	79 24       	jz	$+244    	;abs 0x8e84
    8d92:	a2 c3 0c 11 	bic	#2,	&0x110c	;r3 As==10
    8d96:	b2 d0 00 01 	bis	#256,	&0x110c	;#0x0100
    8d9a:	0c 11 
    8d9c:	5f 42 ef 12 	mov.b	&0x12ef,r15	
    8da0:	3f 90 0f 00 	cmp	#15,	r15	;#0x000f
    8da4:	12 2c       	jc	$+38     	;abs 0x8dca
    8da6:	0f 5f       	rla	r15		
    8da8:	10 4f ac 8d 	br	-29268(r15)	;0x8dac(r15)
    8dac:	ca 8d ca 8d 	sub.b	r13,	-29238(r10);0x8dca(r10)
    8db0:	ca 8d de 8d 	sub.b	r13,	-29218(r10);0x8dde(r10)
    8db4:	ca 8d de 8d 	sub.b	r13,	-29218(r10);0x8dde(r10)
    8db8:	de 8d ca 8d 	sub.b	-29238(r13),-29218(r14);0x8dca(r13), 0x8dde(r14)
    8dbc:	de 8d 
    8dbe:	de 8d ca 8d 	sub.b	-29238(r13),-29238(r14);0x8dca(r13), 0x8dca(r14)
    8dc2:	ca 8d 
    8dc4:	ca 8d ca 8d 	sub.b	r13,	-29238(r10);0x8dca(r10)
    8dc8:	ca 8d 3f 40 	sub.b	r13,	16447(r10);0x403f(r10)
    8dcc:	e6 12       	.word	0x12e6;	????	
    8dce:	8f 43 00 00 	mov	#0,	0(r15)	;r3 As==00, 0x0000(r15)
    8dd2:	8f 43 02 00 	mov	#0,	2(r15)	;r3 As==00, 0x0002(r15)
    8dd6:	b2 4f e2 12 	mov	@r15+,	&0x12e2	
    8dda:	b2 4f e4 12 	mov	@r15+,	&0x12e4	
    8dde:	1f 42 0c 11 	mov	&0x110c,r15	
    8de2:	4f 93       	tst.b	r15		
    8de4:	4f 34       	jge	$+160    	;abs 0x8e84
    8de6:	1f 42 c4 12 	mov	&0x12c4,r15	
    8dea:	1e 42 f0 12 	mov	&0x12f0,r14	
    8dee:	1e 53       	inc	r14		
    8df0:	8f 4e 02 00 	mov	r14,	2(r15)	;0x0002(r15)
    8df4:	bf 42 00 00 	mov	#8,	0(r15)	;r2 As==11, 0x0000(r15)
    8df8:	9f 42 e6 12 	mov	&0x12e6,8(r15)	;0x0008(r15)
    8dfc:	08 00 
    8dfe:	9f 42 e8 12 	mov	&0x12e8,10(r15)	;0x000a(r15)
    8e02:	0a 00 
    8e04:	9f 42 e2 12 	mov	&0x12e2,4(r15)	;0x0004(r15)
    8e08:	04 00 
    8e0a:	9f 42 e4 12 	mov	&0x12e4,6(r15)	;0x0006(r15)
    8e0e:	06 00 
    8e10:	b0 12 80 84 	call	#0x8480	
    8e14:	1f 42 c4 12 	mov	&0x12c4,r15	
    8e18:	1e 42 f0 12 	mov	&0x12f0,r14	
    8e1c:	2e 53       	incd	r14		
    8e1e:	8f 4e 02 00 	mov	r14,	2(r15)	;0x0002(r15)
    8e22:	bf 42 00 00 	mov	#8,	0(r15)	;r2 As==11, 0x0000(r15)
    8e26:	9f 42 ea 12 	mov	&0x12ea,8(r15)	;0x0008(r15)
    8e2a:	08 00 
    8e2c:	9f 42 ec 12 	mov	&0x12ec,10(r15)	;0x000a(r15)
    8e30:	0a 00 
    8e32:	8f 43 04 00 	mov	#0,	4(r15)	;r3 As==00, 0x0004(r15)
    8e36:	8f 43 06 00 	mov	#0,	6(r15)	;r3 As==00, 0x0006(r15)
    8e3a:	b0 12 80 84 	call	#0x8480	
    8e3e:	1f 42 c4 12 	mov	&0x12c4,r15	
    8e42:	1e 42 f0 12 	mov	&0x12f0,r14	
    8e46:	3e 50 05 00 	add	#5,	r14	;#0x0005
    8e4a:	8f 4e 02 00 	mov	r14,	2(r15)	;0x0002(r15)
    8e4e:	bf 42 00 00 	mov	#8,	0(r15)	;r2 As==11, 0x0000(r15)
    8e52:	df 42 ef 12 	mov.b	&0x12ef,11(r15)	;0x000b(r15)
    8e56:	0b 00 
    8e58:	1f 42 c4 12 	mov	&0x12c4,r15	
    8e5c:	df 42 ee 12 	mov.b	&0x12ee,10(r15)	;0x000a(r15)
    8e60:	0a 00 
    8e62:	1f 42 c4 12 	mov	&0x12c4,r15	
    8e66:	8f 43 08 00 	mov	#0,	8(r15)	;r3 As==00, 0x0008(r15)
    8e6a:	8f 43 06 00 	mov	#0,	6(r15)	;r3 As==00, 0x0006(r15)
    8e6e:	9f 42 00 11 	mov	&0x1100,4(r15)	;0x0004(r15)
    8e72:	04 00 
    8e74:	b0 12 80 84 	call	#0x8480	
    8e78:	1a 53       	inc	r10		
    8e7a:	3a 90 0a 00 	cmp	#10,	r10	;#0x000a
    8e7e:	02 20       	jnz	$+6      	;abs 0x8e84
    8e80:	30 40 6a 93 	br	#0x936a	
    8e84:	c2 93 28 00 	tst.b	&0x0028	
    8e88:	22 3b       	jl	$-442    	;abs 0x8cce
    8e8a:	b0 12 36 82 	call	#0x8236	
    8e8e:	1f 42 c6 12 	mov	&0x12c6,r15	
    8e92:	1f 93       	cmp	#1,	r15	;r3 As==01
    8e94:	8f 24       	jz	$+288    	;abs 0x8fb4
    8e96:	3f 90 fc ff 	cmp	#-4,	r15	;#0xfffc
    8e9a:	19 23       	jnz	$-460    	;abs 0x8cce
    8e9c:	1d 42 c8 12 	mov	&0x12c8,r13	
    8ea0:	1e 42 f0 12 	mov	&0x12f0,r14	
    8ea4:	0d 9e       	cmp	r14,	r13	
    8ea6:	73 24       	jz	$+232    	;abs 0x8f8e
    8ea8:	0f 4e       	mov	r14,	r15	
    8eaa:	1f 53       	inc	r15		
    8eac:	0d 9f       	cmp	r15,	r13	
    8eae:	5c 24       	jz	$+186    	;abs 0x8f68
    8eb0:	0f 4e       	mov	r14,	r15	
    8eb2:	2f 53       	incd	r15		
    8eb4:	0d 9f       	cmp	r15,	r13	
    8eb6:	47 24       	jz	$+144    	;abs 0x8f46
    8eb8:	0f 4e       	mov	r14,	r15	
    8eba:	3f 50 05 00 	add	#5,	r15	;#0x0005
    8ebe:	0d 9f       	cmp	r15,	r13	
    8ec0:	2a 24       	jz	$+86     	;abs 0x8f16
    8ec2:	0f 4e       	mov	r14,	r15	
    8ec4:	3f 50 06 00 	add	#6,	r15	;#0x0006
    8ec8:	0d 9f       	cmp	r15,	r13	
    8eca:	01 23       	jnz	$-508    	;abs 0x8cce
    8ecc:	1f 42 c4 12 	mov	&0x12c4,r15	
    8ed0:	8f 4d 02 00 	mov	r13,	2(r15)	;0x0002(r15)
    8ed4:	bf 42 00 00 	mov	#8,	0(r15)	;r2 As==11, 0x0000(r15)
    8ed8:	bf 40 ab 00 	mov	#171,	4(r15)	;#0x00ab, 0x0004(r15)
    8edc:	04 00 
    8ede:	df 42 f6 12 	mov.b	&0x12f6,6(r15)	;0x0006(r15)
    8ee2:	06 00 
    8ee4:	1f 42 c4 12 	mov	&0x12c4,r15	
    8ee8:	df 42 f7 12 	mov.b	&0x12f7,7(r15)	;0x0007(r15)
    8eec:	07 00 
    8eee:	1f 42 c4 12 	mov	&0x12c4,r15	
    8ef2:	df 42 f8 12 	mov.b	&0x12f8,8(r15)	;0x0008(r15)
    8ef6:	08 00 
    8ef8:	1f 42 c4 12 	mov	&0x12c4,r15	
    8efc:	cf 43 09 00 	mov.b	#0,	9(r15)	;r3 As==00, 0x0009(r15)
    8f00:	1f 42 c4 12 	mov	&0x12c4,r15	
    8f04:	cf 43 0a 00 	mov.b	#0,	10(r15)	;r3 As==00, 0x000a(r15)
    8f08:	1f 42 c4 12 	mov	&0x12c4,r15	
    8f0c:	cf 43 0b 00 	mov.b	#0,	11(r15)	;r3 As==00, 0x000b(r15)
    8f10:	b0 12 80 84 	call	#0x8480	
    8f14:	dc 3e       	jmp	$-582    	;abs 0x8cce
    8f16:	1f 42 c4 12 	mov	&0x12c4,r15	
    8f1a:	8f 4d 02 00 	mov	r13,	2(r15)	;0x0002(r15)
    8f1e:	bf 42 00 00 	mov	#8,	0(r15)	;r2 As==11, 0x0000(r15)
    8f22:	df 42 ef 12 	mov.b	&0x12ef,11(r15)	;0x000b(r15)
    8f26:	0b 00 
    8f28:	1f 42 c4 12 	mov	&0x12c4,r15	
    8f2c:	df 42 ee 12 	mov.b	&0x12ee,10(r15)	;0x000a(r15)
    8f30:	0a 00 
    8f32:	1f 42 c4 12 	mov	&0x12c4,r15	
    8f36:	8f 43 08 00 	mov	#0,	8(r15)	;r3 As==00, 0x0008(r15)
    8f3a:	8f 43 06 00 	mov	#0,	6(r15)	;r3 As==00, 0x0006(r15)
    8f3e:	9f 42 00 11 	mov	&0x1100,4(r15)	;0x0004(r15)
    8f42:	04 00 
    8f44:	e5 3f       	jmp	$-52     	;abs 0x8f10
    8f46:	1f 42 c4 12 	mov	&0x12c4,r15	
    8f4a:	8f 4d 02 00 	mov	r13,	2(r15)	;0x0002(r15)
    8f4e:	bf 42 00 00 	mov	#8,	0(r15)	;r2 As==11, 0x0000(r15)
    8f52:	9f 42 ea 12 	mov	&0x12ea,8(r15)	;0x0008(r15)
    8f56:	08 00 
    8f58:	9f 42 ec 12 	mov	&0x12ec,10(r15)	;0x000a(r15)
    8f5c:	0a 00 
    8f5e:	8f 43 04 00 	mov	#0,	4(r15)	;r3 As==00, 0x0004(r15)
    8f62:	8f 43 06 00 	mov	#0,	6(r15)	;r3 As==00, 0x0006(r15)
    8f66:	d4 3f       	jmp	$-86     	;abs 0x8f10
    8f68:	1f 42 c4 12 	mov	&0x12c4,r15	
    8f6c:	8f 4d 02 00 	mov	r13,	2(r15)	;0x0002(r15)
    8f70:	bf 42 00 00 	mov	#8,	0(r15)	;r2 As==11, 0x0000(r15)
    8f74:	9f 42 e6 12 	mov	&0x12e6,8(r15)	;0x0008(r15)
    8f78:	08 00 
    8f7a:	9f 42 e8 12 	mov	&0x12e8,10(r15)	;0x000a(r15)
    8f7e:	0a 00 
    8f80:	9f 42 e2 12 	mov	&0x12e2,4(r15)	;0x0004(r15)
    8f84:	04 00 
    8f86:	9f 42 e4 12 	mov	&0x12e4,6(r15)	;0x0006(r15)
    8f8a:	06 00 
    8f8c:	c1 3f       	jmp	$-124    	;abs 0x8f10
    8f8e:	1f 42 c4 12 	mov	&0x12c4,r15	
    8f92:	8f 4d 02 00 	mov	r13,	2(r15)	;0x0002(r15)
    8f96:	bf 42 00 00 	mov	#8,	0(r15)	;r2 As==11, 0x0000(r15)
    8f9a:	9f 42 f2 12 	mov	&0x12f2,4(r15)	;0x0004(r15)
    8f9e:	04 00 
    8fa0:	9f 42 f4 12 	mov	&0x12f4,6(r15)	;0x0006(r15)
    8fa4:	06 00 
    8fa6:	9f 42 d2 12 	mov	&0x12d2,8(r15)	;0x0008(r15)
    8faa:	08 00 
    8fac:	9f 42 d4 12 	mov	&0x12d4,10(r15)	;0x000a(r15)
    8fb0:	0a 00 
    8fb2:	ae 3f       	jmp	$-162    	;abs 0x8f10
    8fb4:	b2 d0 80 00 	bis	#128,	&0x110c	;#0x0080
    8fb8:	0c 11 
    8fba:	1b 42 f0 12 	mov	&0x12f0,r11	
    8fbe:	0f 4b       	mov	r11,	r15	
    8fc0:	3f 50 16 00 	add	#22,	r15	;#0x0016
    8fc4:	82 9f c8 12 	cmp	r15,	&0x12c8	
    8fc8:	06 20       	jnz	$+14     	;abs 0x8fd6
    8fca:	f2 90 05 00 	cmp.b	#5,	&0x12f8	;#0x0005
    8fce:	f8 12 
    8fd0:	02 2c       	jc	$+6      	;abs 0x8fd6
    8fd2:	30 40 38 93 	br	#0x9338	
    8fd6:	82 9b c8 12 	cmp	r11,	&0x12c8	
    8fda:	0c 20       	jnz	$+26     	;abs 0x8ff4
    8fdc:	1c 42 ce 12 	mov	&0x12ce,r12	
    8fe0:	1d 42 d0 12 	mov	&0x12d0,r13	
    8fe4:	1e 42 d2 12 	mov	&0x12d2,r14	
    8fe8:	1f 42 d4 12 	mov	&0x12d4,r15	
    8fec:	0c 9e       	cmp	r14,	r12	
    8fee:	02 20       	jnz	$+6      	;abs 0x8ff4
    8ff0:	0d 9f       	cmp	r15,	r13	
    8ff2:	8d 25       	jz	$+796    	;abs 0x930e
    8ff4:	1f 42 c8 12 	mov	&0x12c8,r15	
    8ff8:	3f 90 03 04 	cmp	#1027,	r15	;#0x0403
    8ffc:	15 25       	jz	$+556    	;abs 0x9228
    8ffe:	3f 90 06 04 	cmp	#1030,	r15	;#0x0406
    9002:	ff 24       	jz	$+512    	;abs 0x9202
    9004:	3f 90 0b 04 	cmp	#1035,	r15	;#0x040b
    9008:	e4 24       	jz	$+458    	;abs 0x91d2
    900a:	3f 90 00 04 	cmp	#1024,	r15	;#0x0400
    900e:	d7 24       	jz	$+432    	;abs 0x91be
    9010:	3f 90 01 04 	cmp	#1025,	r15	;#0x0401
    9014:	03 20       	jnz	$+8      	;abs 0x901c
    9016:	82 93 22 11 	tst	&0x1122	
    901a:	c4 24       	jz	$+394    	;abs 0x91a4
    901c:	b2 90 02 04 	cmp	#1026,	&0x12c8	;#0x0402
    9020:	c8 12 
    9022:	03 20       	jnz	$+8      	;abs 0x902a
    9024:	82 93 22 11 	tst	&0x1122	
    9028:	9f 24       	jz	$+320    	;abs 0x9168
    902a:	1e 42 c8 12 	mov	&0x12c8,r14	
    902e:	3e 90 82 05 	cmp	#1410,	r14	;#0x0582
    9032:	85 24       	jz	$+268    	;abs 0x913e
    9034:	0f 4b       	mov	r11,	r15	
    9036:	3f 50 1f 00 	add	#31,	r15	;#0x001f
    903a:	0e 9f       	cmp	r15,	r14	
    903c:	48 22       	jnz	$-878    	;abs 0x8cce
    903e:	5f 42 d0 12 	mov.b	&0x12d0,r15	
    9042:	4f 93       	tst.b	r15		
    9044:	3f 24       	jz	$+128    	;abs 0x90c4
    9046:	5f 93       	cmp.b	#1,	r15	;r3 As==01
    9048:	42 22       	jnz	$-890    	;abs 0x8cce
    904a:	1e 42 c4 12 	mov	&0x12c4,r14	
    904e:	8e 43 04 00 	mov	#0,	4(r14)	;r3 As==00, 0x0004(r14)
    9052:	8e 43 06 00 	mov	#0,	6(r14)	;r3 As==00, 0x0006(r14)
    9056:	8e 43 08 00 	mov	#0,	8(r14)	;r3 As==00, 0x0008(r14)
    905a:	8e 43 0a 00 	mov	#0,	10(r14)	;r3 As==00, 0x000a(r14)
    905e:	5f 42 d1 12 	mov.b	&0x12d1,r15	
    9062:	2f 93       	cmp	#2,	r15	;r3 As==10
    9064:	2b 24       	jz	$+88     	;abs 0x90bc
    9066:	3f 90 03 00 	cmp	#3,	r15	;#0x0003
    906a:	21 34       	jge	$+68     	;abs 0x90ae
    906c:	1f 93       	cmp	#1,	r15	;r3 As==01
    906e:	18 24       	jz	$+50     	;abs 0x90a0
    9070:	1f 42 c4 12 	mov	&0x12c4,r15	
    9074:	8f 43 04 00 	mov	#0,	4(r15)	;r3 As==00, 0x0004(r15)
    9078:	8f 43 06 00 	mov	#0,	6(r15)	;r3 As==00, 0x0006(r15)
    907c:	1f 42 c4 12 	mov	&0x12c4,r15	
    9080:	1e 42 f0 12 	mov	&0x12f0,r14	
    9084:	3e 50 1f 00 	add	#31,	r14	;#0x001f
    9088:	8f 4e 02 00 	mov	r14,	2(r15)	;0x0002(r15)
    908c:	bf 42 00 00 	mov	#8,	0(r15)	;r2 As==11, 0x0000(r15)
    9090:	df 42 d1 12 	mov.b	&0x12d1,11(r15)	;0x000b(r15)
    9094:	0b 00 
    9096:	1f 42 c4 12 	mov	&0x12c4,r15	
    909a:	ef 43 0a 00 	mov.b	#2,	10(r15)	;r3 As==10, 0x000a(r15)
    909e:	38 3f       	jmp	$-398    	;abs 0x8f10
    90a0:	9e 42 d2 12 	mov	&0x12d2,4(r14)	;0x0004(r14)
    90a4:	04 00 
    90a6:	9e 42 d4 12 	mov	&0x12d4,6(r14)	;0x0006(r14)
    90aa:	06 00 
    90ac:	e7 3f       	jmp	$-48     	;abs 0x907c
    90ae:	3f 90 03 00 	cmp	#3,	r15	;#0x0003
    90b2:	de 23       	jnz	$-66     	;abs 0x9070
    90b4:	9e 42 d8 12 	mov	&0x12d8,4(r14)	;0x0004(r14)
    90b8:	04 00 
    90ba:	e0 3f       	jmp	$-62     	;abs 0x907c
    90bc:	9e 42 d6 12 	mov	&0x12d6,4(r14)	;0x0004(r14)
    90c0:	04 00 
    90c2:	dc 3f       	jmp	$-70     	;abs 0x907c
    90c4:	5f 42 d1 12 	mov.b	&0x12d1,r15	
    90c8:	2f 93       	cmp	#2,	r15	;r3 As==10
    90ca:	10 20       	jnz	$+34     	;abs 0x90ec
    90cc:	1e 42 ca 12 	mov	&0x12ca,r14	
    90d0:	3e b0 1f 00 	bit	#31,	r14	;#0x001f
    90d4:	02 24       	jz	$+6      	;abs 0x90da
    90d6:	30 40 ce 8c 	br	#0x8cce	
    90da:	3e 90 e1 07 	cmp	#2017,	r14	;#0x07e1
    90de:	02 28       	jnc	$+6      	;abs 0x90e4
    90e0:	30 40 ce 8c 	br	#0x8cce	
    90e4:	82 4e d6 12 	mov	r14,	&0x12d6	
    90e8:	30 40 ce 8c 	br	#0x8cce	
    90ec:	3f 90 03 00 	cmp	#3,	r15	;#0x0003
    90f0:	1a 38       	jl	$+54     	;abs 0x9126
    90f2:	3f 90 03 00 	cmp	#3,	r15	;#0x0003
    90f6:	05 20       	jnz	$+12     	;abs 0x9102
    90f8:	92 42 ca 12 	mov	&0x12ca,&0x12d8	
    90fc:	d8 12 
    90fe:	30 40 ce 8c 	br	#0x8cce	
    9102:	3f 90 ff 00 	cmp	#255,	r15	;#0x00ff
    9106:	02 24       	jz	$+6      	;abs 0x910c
    9108:	30 40 ce 8c 	br	#0x8cce	
    910c:	32 c2       	dint			
    910e:	b0 12 e8 86 	call	#0x86e8	
    9112:	7e 42       	mov.b	#8,	r14	;r2 As==11
    9114:	3f 40 d2 12 	mov	#4818,	r15	;#0x12d2
    9118:	b0 12 1a 87 	call	#0x871a	
    911c:	32 d2       	eint			
    911e:	82 43 20 01 	mov	#0,	&0x0120	;r3 As==00
    9122:	30 40 ce 8c 	br	#0x8cce	
    9126:	1f 93       	cmp	#1,	r15	;r3 As==01
    9128:	02 24       	jz	$+6      	;abs 0x912e
    912a:	30 40 ce 8c 	br	#0x8cce	
    912e:	92 42 ca 12 	mov	&0x12ca,&0x12d2	
    9132:	d2 12 
    9134:	92 42 cc 12 	mov	&0x12cc,&0x12d4	
    9138:	d4 12 
    913a:	30 40 ce 8c 	br	#0x8cce	
    913e:	5f 42 ca 12 	mov.b	&0x12ca,r15	
    9142:	5f 93       	cmp.b	#1,	r15	;r3 As==01
    9144:	0e 24       	jz	$+30     	;abs 0x9162
    9146:	7f 90 03 00 	cmp.b	#3,	r15	;#0x0003
    914a:	07 24       	jz	$+16     	;abs 0x915a
    914c:	6f 92       	cmp.b	#4,	r15	;r2 As==10
    914e:	02 24       	jz	$+6      	;abs 0x9154
    9150:	30 40 ce 8c 	br	#0x8cce	
    9154:	66 42       	mov.b	#4,	r6	;r2 As==10
    9156:	30 40 ce 8c 	br	#0x8cce	
    915a:	76 40 03 00 	mov.b	#3,	r6	;#0x0003
    915e:	30 40 ce 8c 	br	#0x8cce	
    9162:	56 43       	mov.b	#1,	r6	;r3 As==01
    9164:	30 40 ce 8c 	br	#0x8cce	
    9168:	92 42 ca 12 	mov	&0x12ca,&0x111a	
    916c:	1a 11 
    916e:	92 42 cc 12 	mov	&0x12cc,&0x111c	
    9172:	1c 11 
    9174:	92 42 ce 12 	mov	&0x12ce,&0x111e	
    9178:	1e 11 
    917a:	92 42 d0 12 	mov	&0x12d0,&0x1120	
    917e:	20 11 
    9180:	1c 42 1e 11 	mov	&0x111e,r12	
    9184:	1d 42 20 11 	mov	&0x1120,r13	
    9188:	1e 42 1a 11 	mov	&0x111a,r14	
    918c:	1f 42 1c 11 	mov	&0x111c,r15	
    9190:	b0 12 ea 87 	call	#0x87ea	
    9194:	1e 42 1a 11 	mov	&0x111a,r14	
    9198:	1f 42 1c 11 	mov	&0x111c,r15	
    919c:	b0 12 78 88 	call	#0x8878	
    91a0:	30 40 ce 8c 	br	#0x8cce	
    91a4:	c2 93 ca 12 	tst.b	&0x12ca	
    91a8:	05 24       	jz	$+12     	;abs 0x91b4
    91aa:	b2 f0 ff fd 	and	#-513,	&0x110c	;#0xfdff
    91ae:	0c 11 
    91b0:	30 40 ce 8c 	br	#0x8cce	
    91b4:	b2 d0 00 02 	bis	#512,	&0x110c	;#0x0200
    91b8:	0c 11 
    91ba:	30 40 ce 8c 	br	#0x8cce	
    91be:	0f 43       	clr	r15		
    91c0:	f2 93 cd 12 	cmp.b	#-1,	&0x12cd	;r3 As==11
    91c4:	04 24       	jz	$+10     	;abs 0x91ce
    91c6:	82 4f 22 11 	mov	r15,	&0x1122	
    91ca:	30 40 ce 8c 	br	#0x8cce	
    91ce:	1f 43       	mov	#1,	r15	;r3 As==01
    91d0:	fa 3f       	jmp	$-10     	;abs 0x91c6
    91d2:	92 42 ce 12 	mov	&0x12ce,&0x1116	
    91d6:	16 11 
    91d8:	92 42 d0 12 	mov	&0x12d0,&0x1118	
    91dc:	18 11 
    91de:	92 42 ca 12 	mov	&0x12ca,&0x1112	
    91e2:	12 11 
    91e4:	92 42 cc 12 	mov	&0x12cc,&0x1114	
    91e8:	14 11 
    91ea:	1c 42 16 11 	mov	&0x1116,r12	
    91ee:	1d 42 18 11 	mov	&0x1118,r13	
    91f2:	1e 42 12 11 	mov	&0x1112,r14	
    91f6:	1f 42 14 11 	mov	&0x1114,r15	
    91fa:	b0 12 4e 88 	call	#0x884e	
    91fe:	30 40 ce 8c 	br	#0x8cce	
    9202:	0c 43       	clr	r12		
    9204:	3d 40 a0 c0 	mov	#-16224,r13	;#0xc0a0
    9208:	1e 42 ca 12 	mov	&0x12ca,r14	
    920c:	1f 42 cc 12 	mov	&0x12cc,r15	
    9210:	b0 12 a6 a1 	call	#0xa1a6	
    9214:	0f 93       	tst	r15		
    9216:	04 38       	jl	$+10     	;abs 0x9220
    9218:	a2 c2 0c 11 	bic	#4,	&0x110c	;r2 As==10
    921c:	30 40 ce 8c 	br	#0x8cce	
    9220:	a2 d2 0c 11 	bis	#4,	&0x110c	;r2 As==10
    9224:	30 40 ce 8c 	br	#0x8cce	
    9228:	0c 43       	clr	r12		
    922a:	3d 40 48 42 	mov	#16968,	r13	;#0x4248
    922e:	1e 42 ca 12 	mov	&0x12ca,r14	
    9232:	1f 42 cc 12 	mov	&0x12cc,r15	
    9236:	b0 12 e2 a0 	call	#0xa0e2	
    923a:	1f 93       	cmp	#1,	r15	;r3 As==01
    923c:	64 38       	jl	$+202    	;abs 0x9306
    923e:	b2 d0 20 00 	bis	#32,	&0x110c	;#0x0020
    9242:	0c 11 
    9244:	0c 43       	clr	r12		
    9246:	3d 40 48 c2 	mov	#-15800,r13	;#0xc248
    924a:	1e 42 ca 12 	mov	&0x12ca,r14	
    924e:	1f 42 cc 12 	mov	&0x12cc,r15	
    9252:	b0 12 a6 a1 	call	#0xa1a6	
    9256:	0f 93       	tst	r15		
    9258:	52 38       	jl	$+166    	;abs 0x92fe
    925a:	b2 f0 bf ff 	and	#-65,	&0x110c	;#0xffbf
    925e:	0c 11 
    9260:	18 42 ca 12 	mov	&0x12ca,r8	
    9264:	19 42 cc 12 	mov	&0x12cc,r9	
    9268:	0c 43       	clr	r12		
    926a:	3d 40 48 c2 	mov	#-15800,r13	;#0xc248
    926e:	0e 48       	mov	r8,	r14	
    9270:	0f 49       	mov	r9,	r15	
    9272:	b0 12 44 a1 	call	#0xa144	
    9276:	0f 93       	tst	r15		
    9278:	09 38       	jl	$+20     	;abs 0x928c
    927a:	0c 43       	clr	r12		
    927c:	3d 40 48 42 	mov	#16968,	r13	;#0x4248
    9280:	0e 48       	mov	r8,	r14	
    9282:	0f 49       	mov	r9,	r15	
    9284:	b0 12 08 a2 	call	#0xa208	
    9288:	1f 93       	cmp	#1,	r15	;r3 As==01
    928a:	35 38       	jl	$+108    	;abs 0x92f6
    928c:	b2 f0 ef ff 	and	#-17,	&0x110c	;#0xffef
    9290:	0c 11 
    9292:	0c 43       	clr	r12		
    9294:	3d 40 e1 44 	mov	#17633,	r13	;#0x44e1
    9298:	1e 42 ca 12 	mov	&0x12ca,r14	
    929c:	1f 42 cc 12 	mov	&0x12cc,r15	
    92a0:	b0 12 44 a1 	call	#0xa144	
    92a4:	0f 93       	tst	r15		
    92a6:	23 38       	jl	$+72     	;abs 0x92ee
    92a8:	b2 d0 00 04 	bis	#1024,	&0x110c	;#0x0400
    92ac:	0c 11 
    92ae:	0c 43       	clr	r12		
    92b0:	3d 40 c8 44 	mov	#17608,	r13	;#0x44c8
    92b4:	1e 42 ca 12 	mov	&0x12ca,r14	
    92b8:	1f 42 cc 12 	mov	&0x12cc,r15	
    92bc:	b0 12 44 a1 	call	#0xa144	
    92c0:	0f 93       	tst	r15		
    92c2:	11 38       	jl	$+36     	;abs 0x92e6
    92c4:	b2 d0 00 08 	bis	#2048,	&0x110c	;#0x0800
    92c8:	0c 11 
    92ca:	92 42 ca 12 	mov	&0x12ca,&0x110e	
    92ce:	0e 11 
    92d0:	92 42 cc 12 	mov	&0x12cc,&0x1110	
    92d4:	10 11 
    92d6:	1e 42 0e 11 	mov	&0x110e,r14	
    92da:	1f 42 10 11 	mov	&0x1110,r15	
    92de:	b0 12 76 87 	call	#0x8776	
    92e2:	30 40 ce 8c 	br	#0x8cce	
    92e6:	b2 f0 ff f7 	and	#-2049,	&0x110c	;#0xf7ff
    92ea:	0c 11 
    92ec:	ee 3f       	jmp	$-34     	;abs 0x92ca
    92ee:	b2 f0 ff fb 	and	#-1025,	&0x110c	;#0xfbff
    92f2:	0c 11 
    92f4:	dc 3f       	jmp	$-70     	;abs 0x92ae
    92f6:	b2 d0 10 00 	bis	#16,	&0x110c	;#0x0010
    92fa:	0c 11 
    92fc:	ca 3f       	jmp	$-106    	;abs 0x9292
    92fe:	b2 d0 40 00 	bis	#64,	&0x110c	;#0x0040
    9302:	0c 11 
    9304:	ad 3f       	jmp	$-164    	;abs 0x9260
    9306:	b2 f0 df ff 	and	#-33,	&0x110c	;#0xffdf
    930a:	0c 11 
    930c:	9b 3f       	jmp	$-200    	;abs 0x9244
    930e:	5f 42 cd 12 	mov.b	&0x12cd,r15	
    9312:	b0 12 b8 98 	call	#0x98b8	
    9316:	7f 93       	cmp.b	#-1,	r15	;r3 As==11
    9318:	02 24       	jz	$+6      	;abs 0x931e
    931a:	30 40 ce 8c 	br	#0x8cce	
    931e:	32 c2       	dint			
    9320:	82 43 a6 01 	mov	#0,	&0x01a6	;r3 As==00
    9324:	82 43 62 01 	mov	#0,	&0x0162	;r3 As==00
    9328:	82 43 82 01 	mov	#0,	&0x0182	;r3 As==00
    932c:	d2 c3 02 00 	bic.b	#1,	&0x0002	;r3 As==01
    9330:	10 42 fe ff 	br	&0xfffe	
    9334:	30 40 ce 8c 	br	#0x8cce	
    9338:	b2 90 42 4f 	cmp	#20290,	&0x12ca	;#0x4f42
    933c:	ca 12 
    933e:	02 24       	jz	$+6      	;abs 0x9344
    9340:	30 40 ce 8c 	br	#0x8cce	
    9344:	b2 90 4f 54 	cmp	#21583,	&0x12cc	;#0x544f
    9348:	cc 12 
    934a:	02 24       	jz	$+6      	;abs 0x9350
    934c:	30 40 ce 8c 	br	#0x8cce	
    9350:	b2 90 4c 4f 	cmp	#20300,	&0x12ce	;#0x4f4c
    9354:	ce 12 
    9356:	02 24       	jz	$+6      	;abs 0x935c
    9358:	30 40 ce 8c 	br	#0x8cce	
    935c:	b2 90 41 44 	cmp	#17473,	&0x12d0	;#0x4441
    9360:	d0 12 
    9362:	02 24       	jz	$+6      	;abs 0x9368
    9364:	30 40 ce 8c 	br	#0x8cce	
    9368:	da 3e       	jmp	$-586    	;abs 0x911e
    936a:	0a 43       	clr	r10		
    936c:	1f 42 c4 12 	mov	&0x12c4,r15	
    9370:	9f 42 f0 12 	mov	&0x12f0,2(r15)	;0x0002(r15)
    9374:	02 00 
    9376:	bf 42 00 00 	mov	#8,	0(r15)	;r2 As==11, 0x0000(r15)
    937a:	9f 42 f2 12 	mov	&0x12f2,4(r15)	;0x0004(r15)
    937e:	04 00 
    9380:	9f 42 f4 12 	mov	&0x12f4,6(r15)	;0x0006(r15)
    9384:	06 00 
    9386:	9f 42 d2 12 	mov	&0x12d2,8(r15)	;0x0008(r15)
    938a:	08 00 
    938c:	9f 42 d4 12 	mov	&0x12d4,10(r15)	;0x000a(r15)
    9390:	0a 00 
    9392:	b0 12 80 84 	call	#0x8480	
    9396:	30 40 84 8e 	br	#0x8e84	
    939a:	f2 d0 40 00 	bis.b	#64,	&0x0019	;#0x0040
    939e:	19 00 
    93a0:	30 40 8c 8d 	br	#0x8d8c	
    93a4:	f2 d0 40 00 	bis.b	#64,	&0x0021	;#0x0040
    93a8:	21 00 
    93aa:	30 40 6e 8d 	br	#0x8d6e	
    93ae:	f2 f0 df ff 	and.b	#-33,	&0x0021	;#0xffdf
    93b2:	21 00 
    93b4:	30 40 5c 8d 	br	#0x8d5c	
    93b8:	4f 43       	clr.b	r15		
    93ba:	30 40 3e 8d 	br	#0x8d3e	
    93be:	1e 42 00 11 	mov	&0x1100,r14	
    93c2:	0d 4e       	mov	r14,	r13	
    93c4:	2e b3       	bit	#2,	r14	;r3 As==10
    93c6:	09 24       	jz	$+20     	;abs 0x93da
    93c8:	6f 42       	mov.b	#4,	r15	;r2 As==10
    93ca:	f2 f0 0f 00 	and.b	#15,	&0x0031	;#0x000f
    93ce:	31 00 
    93d0:	f2 d0 10 00 	bis.b	#16,	&0x0031	;#0x0010
    93d4:	31 00 
    93d6:	30 40 42 8d 	br	#0x8d42	
    93da:	2e b2       	bit	#4,	r14	;r2 As==10
    93dc:	0b 24       	jz	$+24     	;abs 0x93f4
    93de:	b2 b0 10 00 	bit	#16,	&0x110c	;#0x0010
    93e2:	0c 11 
    93e4:	04 20       	jnz	$+10     	;abs 0x93ee
    93e6:	b2 b0 20 00 	bit	#32,	&0x110c	;#0x0020
    93ea:	0c 11 
    93ec:	03 24       	jz	$+8      	;abs 0x93f4
    93ee:	7f 40 05 00 	mov.b	#5,	r15	;#0x0005
    93f2:	eb 3f       	jmp	$-40     	;abs 0x93ca
    93f4:	3d b2       	bit	#8,	r13	;r2 As==11
    93f6:	0b 24       	jz	$+24     	;abs 0x940e
    93f8:	b2 b0 10 00 	bit	#16,	&0x110c	;#0x0010
    93fc:	0c 11 
    93fe:	04 20       	jnz	$+10     	;abs 0x9408
    9400:	b2 b0 20 00 	bit	#32,	&0x110c	;#0x0020
    9404:	0c 11 
    9406:	03 24       	jz	$+8      	;abs 0x940e
    9408:	7f 40 06 00 	mov.b	#6,	r15	;#0x0006
    940c:	de 3f       	jmp	$-66     	;abs 0x93ca
    940e:	7f 40 03 00 	mov.b	#3,	r15	;#0x0003
    9412:	db 3f       	jmp	$-72     	;abs 0x93ca
    9414:	1e 42 00 11 	mov	&0x1100,r14	
    9418:	0d 4e       	mov	r14,	r13	
    941a:	1e b3       	bit	#1,	r14	;r3 As==01
    941c:	08 24       	jz	$+18     	;abs 0x942e
    941e:	b2 b0 10 00 	bit	#16,	&0x110c	;#0x0010
    9422:	0c 11 
    9424:	25 20       	jnz	$+76     	;abs 0x9470
    9426:	b2 b0 40 00 	bit	#64,	&0x110c	;#0x0040
    942a:	0c 11 
    942c:	21 20       	jnz	$+68     	;abs 0x9470
    942e:	2d b2       	bit	#4,	r13	;r2 As==10
    9430:	12 24       	jz	$+38     	;abs 0x9456
    9432:	b2 b0 10 00 	bit	#16,	&0x110c	;#0x0010
    9436:	0c 11 
    9438:	04 20       	jnz	$+10     	;abs 0x9442
    943a:	b2 b0 20 00 	bit	#32,	&0x110c	;#0x0020
    943e:	0c 11 
    9440:	0a 24       	jz	$+22     	;abs 0x9456
    9442:	7f 40 05 00 	mov.b	#5,	r15	;#0x0005
    9446:	f2 f0 0f 00 	and.b	#15,	&0x0031	;#0x000f
    944a:	31 00 
    944c:	f2 d0 20 00 	bis.b	#32,	&0x0031	;#0x0020
    9450:	31 00 
    9452:	30 40 42 8d 	br	#0x8d42	
    9456:	3d b2       	bit	#8,	r13	;r2 As==11
    9458:	0b 24       	jz	$+24     	;abs 0x9470
    945a:	b2 b0 10 00 	bit	#16,	&0x110c	;#0x0010
    945e:	0c 11 
    9460:	04 20       	jnz	$+10     	;abs 0x946a
    9462:	b2 b0 20 00 	bit	#32,	&0x110c	;#0x0020
    9466:	0c 11 
    9468:	03 24       	jz	$+8      	;abs 0x9470
    946a:	7f 40 06 00 	mov.b	#6,	r15	;#0x0006
    946e:	eb 3f       	jmp	$-40     	;abs 0x9446
    9470:	7f 40 03 00 	mov.b	#3,	r15	;#0x0003
    9474:	e8 3f       	jmp	$-46     	;abs 0x9446
    9476:	1e 42 00 11 	mov	&0x1100,r14	
    947a:	0d 4e       	mov	r14,	r13	
    947c:	2e b3       	bit	#2,	r14	;r3 As==10
    947e:	24 20       	jnz	$+74     	;abs 0x94c8
    9480:	1e b3       	bit	#1,	r14	;r3 As==01
    9482:	12 24       	jz	$+38     	;abs 0x94a8
    9484:	b2 b0 10 00 	bit	#16,	&0x110c	;#0x0010
    9488:	0c 11 
    948a:	04 20       	jnz	$+10     	;abs 0x9494
    948c:	b2 b0 40 00 	bit	#64,	&0x110c	;#0x0040
    9490:	0c 11 
    9492:	0a 24       	jz	$+22     	;abs 0x94a8
    9494:	7f 40 03 00 	mov.b	#3,	r15	;#0x0003
    9498:	f2 f0 0f 00 	and.b	#15,	&0x0031	;#0x000f
    949c:	31 00 
    949e:	f2 d0 40 00 	bis.b	#64,	&0x0031	;#0x0040
    94a2:	31 00 
    94a4:	30 40 42 8d 	br	#0x8d42	
    94a8:	3d b2       	bit	#8,	r13	;r2 As==11
    94aa:	0b 24       	jz	$+24     	;abs 0x94c2
    94ac:	b2 b0 10 00 	bit	#16,	&0x110c	;#0x0010
    94b0:	0c 11 
    94b2:	04 20       	jnz	$+10     	;abs 0x94bc
    94b4:	b2 b0 20 00 	bit	#32,	&0x110c	;#0x0020
    94b8:	0c 11 
    94ba:	03 24       	jz	$+8      	;abs 0x94c2
    94bc:	7f 40 06 00 	mov.b	#6,	r15	;#0x0006
    94c0:	eb 3f       	jmp	$-40     	;abs 0x9498
    94c2:	7f 40 05 00 	mov.b	#5,	r15	;#0x0005
    94c6:	e8 3f       	jmp	$-46     	;abs 0x9498
    94c8:	6f 42       	mov.b	#4,	r15	;r2 As==10
    94ca:	e6 3f       	jmp	$-50     	;abs 0x9498
    94cc:	1e 42 00 11 	mov	&0x1100,r14	
    94d0:	0d 4e       	mov	r14,	r13	
    94d2:	2e b3       	bit	#2,	r14	;r3 As==10
    94d4:	24 20       	jnz	$+74     	;abs 0x951e
    94d6:	2e b2       	bit	#4,	r14	;r2 As==10
    94d8:	12 24       	jz	$+38     	;abs 0x94fe
    94da:	b2 b0 10 00 	bit	#16,	&0x110c	;#0x0010
    94de:	0c 11 
    94e0:	04 20       	jnz	$+10     	;abs 0x94ea
    94e2:	b2 b0 20 00 	bit	#32,	&0x110c	;#0x0020
    94e6:	0c 11 
    94e8:	0a 24       	jz	$+22     	;abs 0x94fe
    94ea:	7f 40 05 00 	mov.b	#5,	r15	;#0x0005
    94ee:	f2 f0 0f 00 	and.b	#15,	&0x0031	;#0x000f
    94f2:	31 00 
    94f4:	f2 d0 80 ff 	bis.b	#-128,	&0x0031	;#0xff80
    94f8:	31 00 
    94fa:	30 40 42 8d 	br	#0x8d42	
    94fe:	1d b3       	bit	#1,	r13	;r3 As==01
    9500:	0b 24       	jz	$+24     	;abs 0x9518
    9502:	b2 b0 10 00 	bit	#16,	&0x110c	;#0x0010
    9506:	0c 11 
    9508:	04 20       	jnz	$+10     	;abs 0x9512
    950a:	b2 b0 40 00 	bit	#64,	&0x110c	;#0x0040
    950e:	0c 11 
    9510:	03 24       	jz	$+8      	;abs 0x9518
    9512:	7f 40 03 00 	mov.b	#3,	r15	;#0x0003
    9516:	eb 3f       	jmp	$-40     	;abs 0x94ee
    9518:	7f 40 06 00 	mov.b	#6,	r15	;#0x0006
    951c:	e8 3f       	jmp	$-46     	;abs 0x94ee
    951e:	6f 42       	mov.b	#4,	r15	;r2 As==10
    9520:	e6 3f       	jmp	$-50     	;abs 0x94ee
    9522:	7f 40 07 00 	mov.b	#7,	r15	;#0x0007
    9526:	77 53       	add.b	#-1,	r7	;r3 As==11
    9528:	f2 f0 2f 00 	and.b	#47,	&0x0031	;#0x002f
    952c:	31 00 
    952e:	47 93       	tst.b	r7		
    9530:	07 20       	jnz	$+16     	;abs 0x9540
    9532:	77 40 28 00 	mov.b	#40,	r7	;#0x0028
    9536:	f2 d0 20 00 	bis.b	#32,	&0x0031	;#0x0020
    953a:	31 00 
    953c:	30 40 3e 8d 	br	#0x8d3e	
    9540:	77 90 14 00 	cmp.b	#20,	r7	;#0x0014
    9544:	02 24       	jz	$+6      	;abs 0x954a
    9546:	30 40 3e 8d 	br	#0x8d3e	
    954a:	f2 f0 df ff 	and.b	#-33,	&0x0031	;#0xffdf
    954e:	31 00 
    9550:	30 40 3e 8d 	br	#0x8d3e	
    9554:	1e 42 00 11 	mov	&0x1100,r14	
    9558:	2e b3       	bit	#2,	r14	;r3 As==10
    955a:	b6 23       	jnz	$-146    	;abs 0x94c8
    955c:	3e b2       	bit	#8,	r14	;r2 As==11
    955e:	0b 24       	jz	$+24     	;abs 0x9576
    9560:	b2 b0 10 00 	bit	#16,	&0x110c	;#0x0010
    9564:	0c 11 
    9566:	04 20       	jnz	$+10     	;abs 0x9570
    9568:	b2 b0 20 00 	bit	#32,	&0x110c	;#0x0020
    956c:	0c 11 
    956e:	03 24       	jz	$+8      	;abs 0x9576
    9570:	7f 40 09 00 	mov.b	#9,	r15	;#0x0009
    9574:	91 3f       	jmp	$-220    	;abs 0x9498
    9576:	7f 42       	mov.b	#8,	r15	;r2 As==11
    9578:	8f 3f       	jmp	$-224    	;abs 0x9498
    957a:	1e 42 00 11 	mov	&0x1100,r14	
    957e:	2e b3       	bit	#2,	r14	;r3 As==10
    9580:	ce 23       	jnz	$-98     	;abs 0x951e
    9582:	2e b2       	bit	#4,	r14	;r2 As==10
    9584:	0a 24       	jz	$+22     	;abs 0x959a
    9586:	b2 b0 10 00 	bit	#16,	&0x110c	;#0x0010
    958a:	0c 11 
    958c:	04 20       	jnz	$+10     	;abs 0x9596
    958e:	b2 b0 20 00 	bit	#32,	&0x110c	;#0x0020
    9592:	0c 11 
    9594:	02 24       	jz	$+6      	;abs 0x959a
    9596:	7f 42       	mov.b	#8,	r15	;r2 As==11
    9598:	aa 3f       	jmp	$-170    	;abs 0x94ee
    959a:	7f 40 09 00 	mov.b	#9,	r15	;#0x0009
    959e:	a7 3f       	jmp	$-176    	;abs 0x94ee
    95a0:	1e 42 00 11 	mov	&0x1100,r14	
    95a4:	2e b3       	bit	#2,	r14	;r3 As==10
    95a6:	03 24       	jz	$+8      	;abs 0x95ae
    95a8:	6f 42       	mov.b	#4,	r15	;r2 As==10
    95aa:	30 40 42 8d 	br	#0x8d42	
    95ae:	f2 90 0a 00 	cmp.b	#10,	&0x12ef	;#0x000a
    95b2:	ef 12 
    95b4:	2d 24       	jz	$+92     	;abs 0x9610
    95b6:	f2 90 0b 00 	cmp.b	#11,	&0x12ef	;#0x000b
    95ba:	ef 12 
    95bc:	22 24       	jz	$+70     	;abs 0x9602
    95be:	f2 90 0c 00 	cmp.b	#12,	&0x12ef	;#0x000c
    95c2:	ef 12 
    95c4:	19 24       	jz	$+52     	;abs 0x95f8
    95c6:	f2 90 0d 00 	cmp.b	#13,	&0x12ef	;#0x000d
    95ca:	ef 12 
    95cc:	0e 24       	jz	$+30     	;abs 0x95ea
    95ce:	f2 90 0e 00 	cmp.b	#14,	&0x12ef	;#0x000e
    95d2:	ef 12 
    95d4:	04 24       	jz	$+10     	;abs 0x95de
    95d6:	5f 42 ef 12 	mov.b	&0x12ef,r15	
    95da:	30 40 42 8d 	br	#0x8d42	
    95de:	66 92       	cmp.b	#4,	r6	;r2 As==10
    95e0:	fa 23       	jnz	$-10     	;abs 0x95d6
    95e2:	7f 40 09 00 	mov.b	#9,	r15	;#0x0009
    95e6:	30 40 42 8d 	br	#0x8d42	
    95ea:	76 90 03 00 	cmp.b	#3,	r6	;#0x0003
    95ee:	ef 23       	jnz	$-32     	;abs 0x95ce
    95f0:	7f 40 06 00 	mov.b	#6,	r15	;#0x0006
    95f4:	30 40 42 8d 	br	#0x8d42	
    95f8:	66 92       	cmp.b	#4,	r6	;r2 As==10
    95fa:	e5 23       	jnz	$-52     	;abs 0x95c6
    95fc:	7f 42       	mov.b	#8,	r15	;r2 As==11
    95fe:	30 40 42 8d 	br	#0x8d42	
    9602:	76 90 03 00 	cmp.b	#3,	r6	;#0x0003
    9606:	db 23       	jnz	$-72     	;abs 0x95be
    9608:	7f 40 05 00 	mov.b	#5,	r15	;#0x0005
    960c:	30 40 42 8d 	br	#0x8d42	
    9610:	76 90 03 00 	cmp.b	#3,	r6	;#0x0003
    9614:	d0 23       	jnz	$-94     	;abs 0x95b6
    9616:	7f 40 03 00 	mov.b	#3,	r15	;#0x0003
    961a:	30 40 42 8d 	br	#0x8d42	
    961e:	82 4f f0 12 	mov	r15,	&0x12f0	
    9622:	30 40 7a 8c 	br	#0x8c7a	
    9626:	30 40 5e a7 	br	#0xa75e	

0000962a <clock_init>:
    962a:	d2 42 f9 10 	mov.b	&0x10f9,&0x0057	
    962e:	57 00 
    9630:	d2 42 f8 10 	mov.b	&0x10f8,&0x0056	
    9634:	56 00 
    9636:	30 41       	ret			

00009638 <io_init>:
    9638:	c2 43 21 00 	mov.b	#0,	&0x0021	;r3 As==00
    963c:	f2 40 e0 ff 	mov.b	#-32,	&0x0022	;#0xffe0
    9640:	22 00 
    9642:	c2 43 29 00 	mov.b	#0,	&0x0029	;r3 As==00
    9646:	c2 43 2a 00 	mov.b	#0,	&0x002a	;r3 As==00
    964a:	f2 40 d1 ff 	mov.b	#-47,	&0x0019	;#0xffd1
    964e:	19 00 
    9650:	f2 40 db ff 	mov.b	#-37,	&0x001a	;#0xffdb
    9654:	1a 00 
    9656:	f2 40 20 00 	mov.b	#32,	&0x001d	;#0x0020
    965a:	1d 00 
    965c:	f2 40 fe ff 	mov.b	#-2,	&0x001e	;#0xfffe
    9660:	1e 00 
    9662:	c2 43 31 00 	mov.b	#0,	&0x0031	;r3 As==00
    9666:	f2 43 32 00 	mov.b	#-1,	&0x0032	;r3 As==11
    966a:	c2 43 35 00 	mov.b	#0,	&0x0035	;r3 As==00
    966e:	d2 43 36 00 	mov.b	#1,	&0x0036	;r3 As==01
    9672:	30 41       	ret			

00009674 <timerA_init>:
    9674:	b2 40 c4 02 	mov	#708,	&0x0160	;#0x02c4
    9678:	60 01 
    967a:	b2 40 20 4e 	mov	#20000,	&0x0172	;#0x4e20
    967e:	72 01 
    9680:	b2 40 10 00 	mov	#16,	&0x0162	;#0x0010
    9684:	62 01 
    9686:	b2 d0 10 00 	bis	#16,	&0x0160	;#0x0010
    968a:	60 01 
    968c:	30 41       	ret			

0000968e <timerB_init>:
    968e:	b2 40 c4 02 	mov	#708,	&0x0180	;#0x02c4
    9692:	80 01 
    9694:	b2 40 c8 00 	mov	#200,	&0x0192	;#0x00c8
    9698:	92 01 
    969a:	82 43 98 01 	mov	#0,	&0x0198	;r3 As==00
    969e:	b2 40 e0 00 	mov	#224,	&0x0188	;#0x00e0
    96a2:	88 01 
    96a4:	82 43 9a 01 	mov	#0,	&0x019a	;r3 As==00
    96a8:	b2 40 e0 00 	mov	#224,	&0x018a	;#0x00e0
    96ac:	8a 01 
    96ae:	f2 d0 06 00 	bis.b	#6,	&0x001f	;#0x0006
    96b2:	1f 00 
    96b4:	b2 40 10 00 	mov	#16,	&0x0182	;#0x0010
    96b8:	82 01 
    96ba:	b2 d0 10 00 	bis	#16,	&0x0180	;#0x0010
    96be:	80 01 
    96c0:	30 41       	ret			

000096c2 <adc_init>:
    96c2:	f2 d0 fe ff 	bis.b	#-2,	&0x0037	;#0xfffe
    96c6:	37 00 
    96c8:	b2 40 f0 88 	mov	#-30480,&0x01a0	;#0x88f0
    96cc:	a0 01 
    96ce:	b2 40 72 02 	mov	#626,	&0x01a2	;#0x0272
    96d2:	a2 01 
    96d4:	f2 40 13 00 	mov.b	#19,	&0x0080	;#0x0013
    96d8:	80 00 
    96da:	f2 40 12 00 	mov.b	#18,	&0x0081	;#0x0012
    96de:	81 00 
    96e0:	f2 40 11 00 	mov.b	#17,	&0x0082	;#0x0011
    96e4:	82 00 
    96e6:	f2 40 14 00 	mov.b	#20,	&0x0083	;#0x0014
    96ea:	83 00 
    96ec:	f2 40 15 00 	mov.b	#21,	&0x0084	;#0x0015
    96f0:	84 00 
    96f2:	f2 40 16 00 	mov.b	#22,	&0x0085	;#0x0016
    96f6:	85 00 
    96f8:	f2 40 97 ff 	mov.b	#-105,	&0x0086	;#0xff97
    96fc:	86 00 
    96fe:	b2 40 40 00 	mov	#64,	&0x01a6	;#0x0040
    9702:	a6 01 
    9704:	a2 d3 a0 01 	bis	#2,	&0x01a0	;r3 As==10
    9708:	30 41       	ret			

0000970a <timer_b0>:
    970a:	0f 12       	push	r15		
    970c:	0e 12       	push	r14		
    970e:	0d 12       	push	r13		
    9710:	1e 42 26 11 	mov	&0x1126,r14	
    9714:	1e 92 28 11 	cmp	&0x1128,r14	
    9718:	44 24       	jz	$+138    	;abs 0x97a2
    971a:	1e 92 2a 11 	cmp	&0x112a,r14	
    971e:	3d 24       	jz	$+124    	;abs 0x979a
    9720:	1e 92 2c 11 	cmp	&0x112c,r14	
    9724:	2b 24       	jz	$+88     	;abs 0x977c
    9726:	1e 92 2e 11 	cmp	&0x112e,r14	
    972a:	25 24       	jz	$+76     	;abs 0x9776
    972c:	1e 53       	inc	r14		
    972e:	82 4e 26 11 	mov	r14,	&0x1126	
    9732:	b2 b0 00 10 	bit	#4096,	&0x110c	;#0x1000
    9736:	0c 11 
    9738:	03 24       	jz	$+8      	;abs 0x9740
    973a:	b2 f0 ff ef 	and	#-4097,	&0x110c	;#0xefff
    973e:	0c 11 
    9740:	b2 b0 00 20 	bit	#8192,	&0x110c	;#0x2000
    9744:	0c 11 
    9746:	03 24       	jz	$+8      	;abs 0x974e
    9748:	b2 f0 ff df 	and	#-8193,	&0x110c	;#0xdfff
    974c:	0c 11 
    974e:	b2 b0 00 40 	bit	#16384,	&0x110c	;#0x4000
    9752:	0c 11 
    9754:	06 24       	jz	$+14     	;abs 0x9762
    9756:	b2 f0 ff bf 	and	#-16385,&0x110c	;#0xbfff
    975a:	0c 11 
    975c:	92 42 de 12 	mov	&0x12de,&0x0198	
    9760:	98 01 
    9762:	82 93 0c 11 	tst	&0x110c	
    9766:	2d 34       	jge	$+92     	;abs 0x97c2
    9768:	b2 f0 ff 7f 	and	#32767,	&0x110c	;#0x7fff
    976c:	0c 11 
    976e:	92 42 e0 12 	mov	&0x12e0,&0x019a	
    9772:	9a 01 
    9774:	26 3c       	jmp	$+78     	;abs 0x97c2
    9776:	f2 c2 1d 00 	bic.b	#8,	&0x001d	;r2 As==11
    977a:	d8 3f       	jmp	$-78     	;abs 0x972c
    977c:	f2 d2 1d 00 	bis.b	#8,	&0x001d	;r2 As==11
    9780:	1f 42 dc 12 	mov	&0x12dc,r15	
    9784:	0d 4e       	mov	r14,	r13	
    9786:	0d 5f       	add	r15,	r13	
    9788:	82 4d 2c 11 	mov	r13,	&0x112c	
    978c:	12 c3       	clrc			
    978e:	0f 10       	rrc	r15		
    9790:	0f 11       	rra	r15		
    9792:	0f 5e       	add	r14,	r15	
    9794:	82 4f 2e 11 	mov	r15,	&0x112e	
    9798:	c6 3f       	jmp	$-114    	;abs 0x9726
    979a:	f2 f0 ef ff 	and.b	#-17,	&0x001d	;#0xffef
    979e:	1d 00 
    97a0:	bf 3f       	jmp	$-128    	;abs 0x9720
    97a2:	f2 d0 10 00 	bis.b	#16,	&0x001d	;#0x0010
    97a6:	1d 00 
    97a8:	1f 42 da 12 	mov	&0x12da,r15	
    97ac:	0d 4e       	mov	r14,	r13	
    97ae:	0d 5f       	add	r15,	r13	
    97b0:	82 4d 28 11 	mov	r13,	&0x1128	
    97b4:	12 c3       	clrc			
    97b6:	0f 10       	rrc	r15		
    97b8:	0f 11       	rra	r15		
    97ba:	0f 5e       	add	r14,	r15	
    97bc:	82 4f 2a 11 	mov	r15,	&0x112a	
    97c0:	ac 3f       	jmp	$-166    	;abs 0x971a
    97c2:	3d 41       	pop	r13		
    97c4:	3e 41       	pop	r14		
    97c6:	3f 41       	pop	r15		
    97c8:	00 13       	reti			

000097ca <timer_a0>:
    97ca:	0f 12       	push	r15		
    97cc:	92 d3 0c 11 	bis	#1,	&0x110c	;r3 As==01
    97d0:	f2 53 24 11 	add.b	#-1,	&0x1124	;r3 As==11
    97d4:	05 20       	jnz	$+12     	;abs 0x97e0
    97d6:	f2 40 0a 00 	mov.b	#10,	&0x1124	;#0x000a
    97da:	24 11 
    97dc:	a2 d3 0c 11 	bis	#2,	&0x110c	;r3 As==10
    97e0:	b2 b0 00 01 	bit	#256,	&0x110c	;#0x0100
    97e4:	0c 11 
    97e6:	08 24       	jz	$+18     	;abs 0x97f8
    97e8:	b2 f0 ff fe 	and	#-257,	&0x110c	;#0xfeff
    97ec:	0c 11 
    97ee:	e2 43 30 11 	mov.b	#2,	&0x1130	;r3 As==10
    97f2:	f2 f0 7f 00 	and.b	#127,	&0x0019	;#0x007f
    97f6:	19 00 
    97f8:	5f 42 30 11 	mov.b	&0x1130,r15	
    97fc:	4f 93       	tst.b	r15		
    97fe:	04 20       	jnz	$+10     	;abs 0x9808
    9800:	f2 d0 80 ff 	bis.b	#-128,	&0x0019	;#0xff80
    9804:	19 00 
    9806:	03 3c       	jmp	$+8      	;abs 0x980e
    9808:	7f 53       	add.b	#-1,	r15	;r3 As==11
    980a:	c2 4f 30 11 	mov.b	r15,	&0x1130	
    980e:	3f 41       	pop	r15		
    9810:	00 13       	reti			

00009812 <adc_isr>:
    9812:	b2 f0 bf ff 	and	#-65,	&0x01a4	;#0xffbf
    9816:	a4 01 
    9818:	b2 d2 0c 11 	bis	#8,	&0x110c	;r2 As==11
    981c:	00 13       	reti			

0000981e <usci_init>:
    981e:	f2 d0 0e 00 	bis.b	#14,	&0x001b	;#0x000e
    9822:	1b 00 
    9824:	f2 d0 69 00 	bis.b	#105,	&0x0068	;#0x0069
    9828:	68 00 
    982a:	4f 93       	tst.b	r15		
    982c:	04 20       	jnz	$+10     	;abs 0x9836
    982e:	f2 40 81 ff 	mov.b	#-127,	&0x0069	;#0xff81
    9832:	69 00 
    9834:	03 3c       	jmp	$+8      	;abs 0x983c
    9836:	f2 40 41 00 	mov.b	#65,	&0x0069	;#0x0041
    983a:	69 00 
    983c:	e2 43 6a 00 	mov.b	#2,	&0x006a	;r3 As==10
    9840:	c2 43 6b 00 	mov.b	#0,	&0x006b	;r3 As==00
    9844:	d2 c3 69 00 	bic.b	#1,	&0x0069	;r3 As==01
    9848:	30 41       	ret			

0000984a <usci_transmit>:
    984a:	c2 4f 6f 00 	mov.b	r15,	&0x006f	
    984e:	e2 b2 03 00 	bit.b	#4,	&0x0003	;r2 As==10
    9852:	fd 27       	jz	$-4      	;abs 0x984e
    9854:	5f 42 6e 00 	mov.b	&0x006e,r15	
    9858:	30 41       	ret			

0000985a <usci_exchange>:
    985a:	c2 4f 6f 00 	mov.b	r15,	&0x006f	
    985e:	e2 b2 03 00 	bit.b	#4,	&0x0003	;r2 As==10
    9862:	fd 27       	jz	$-4      	;abs 0x985e
    9864:	5f 42 6e 00 	mov.b	&0x006e,r15	
    9868:	7f f3       	and.b	#-1,	r15	;r3 As==11
    986a:	30 41       	ret			

0000986c <variant_retreive_hware>:
    986c:	1e 42 d8 ff 	mov	&0xffd8,r14	
    9870:	1f 42 da ff 	mov	&0xffda,r15	
    9874:	0e 93       	tst	r14		
    9876:	02 20       	jnz	$+6      	;abs 0x987c
    9878:	0f 93       	tst	r15		
    987a:	10 24       	jz	$+34     	;abs 0x989c
    987c:	3e 93       	cmp	#-1,	r14	;r3 As==11
    987e:	02 20       	jnz	$+6      	;abs 0x9884
    9880:	3f 93       	cmp	#-1,	r15	;r3 As==11
    9882:	0c 24       	jz	$+26     	;abs 0x989c
    9884:	3f 40 d8 ff 	mov	#-40,	r15	;#0xffd8
    9888:	b2 4f f2 12 	mov	@r15+,	&0x12f2	
    988c:	b2 4f f4 12 	mov	@r15+,	&0x12f4	
    9890:	b2 4f f6 12 	mov	@r15+,	&0x12f6	
    9894:	b2 4f f8 12 	mov	@r15+,	&0x12f8	
    9898:	1f 43       	mov	#1,	r15	;r3 As==01
    989a:	30 41       	ret			
    989c:	82 43 f2 12 	mov	#0,	&0x12f2	;r3 As==00
    98a0:	82 43 f4 12 	mov	#0,	&0x12f4	;r3 As==00
    98a4:	d2 43 f6 12 	mov.b	#1,	&0x12f6	;r3 As==01
    98a8:	c2 43 f7 12 	mov.b	#0,	&0x12f7	;r3 As==00
    98ac:	d2 43 f8 12 	mov.b	#1,	&0x12f8	;r3 As==01
    98b0:	c2 43 f9 12 	mov.b	#0,	&0x12f9	;r3 As==00
    98b4:	0f 43       	clr	r15		
    98b6:	30 41       	ret			

000098b8 <variant_devinfo_req>:
    98b8:	0b 12       	push	r11		
    98ba:	4d 4f       	mov.b	r15,	r13	
    98bc:	1f 42 c4 12 	mov	&0x12c4,r15	
    98c0:	8f 43 04 00 	mov	#0,	4(r15)	;r3 As==00, 0x0004(r15)
    98c4:	8f 43 06 00 	mov	#0,	6(r15)	;r3 As==00, 0x0006(r15)
    98c8:	8f 43 08 00 	mov	#0,	8(r15)	;r3 As==00, 0x0008(r15)
    98cc:	8f 43 0a 00 	mov	#0,	10(r15)	;r3 As==00, 0x000a(r15)
    98d0:	9f 42 f0 12 	mov	&0x12f0,2(r15)	;0x0002(r15)
    98d4:	02 00 
    98d6:	bf 42 00 00 	mov	#8,	0(r15)	;r2 As==11, 0x0000(r15)
    98da:	9f 42 f2 12 	mov	&0x12f2,4(r15)	;0x0004(r15)
    98de:	04 00 
    98e0:	9f 42 f4 12 	mov	&0x12f4,6(r15)	;0x0006(r15)
    98e4:	06 00 
    98e6:	cf 4d 07 00 	mov.b	r13,	7(r15)	;0x0007(r15)
    98ea:	4e 4d       	mov.b	r13,	r14	
    98ec:	3e 90 05 00 	cmp	#5,	r14	;#0x0005
    98f0:	80 24       	jz	$+258    	;abs 0x99f2
    98f2:	3e 90 06 00 	cmp	#6,	r14	;#0x0006
    98f6:	4e 34       	jge	$+158    	;abs 0x9994
    98f8:	2e 93       	cmp	#2,	r14	;r3 As==10
    98fa:	43 24       	jz	$+136    	;abs 0x9982
    98fc:	3e 90 03 00 	cmp	#3,	r14	;#0x0003
    9900:	27 34       	jge	$+80     	;abs 0x9950
    9902:	0f 43       	clr	r15		
    9904:	0e 93       	tst	r14		
    9906:	7f 24       	jz	$+256    	;abs 0x9a06
    9908:	1e 93       	cmp	#1,	r14	;r3 As==01
    990a:	11 24       	jz	$+36     	;abs 0x992e
    990c:	1f 42 c4 12 	mov	&0x12c4,r15	
    9910:	ff 40 fe ff 	mov.b	#-2,	7(r15)	;#0xfffe, 0x0007(r15)
    9914:	07 00 
    9916:	1f 42 c4 12 	mov	&0x12c4,r15	
    991a:	cf 4d 08 00 	mov.b	r13,	8(r15)	;0x0008(r15)
    991e:	cf 43 09 00 	mov.b	#0,	9(r15)	;r3 As==00, 0x0009(r15)
    9922:	8f 43 0a 00 	mov	#0,	10(r15)	;r3 As==00, 0x000a(r15)
    9926:	b0 12 80 84 	call	#0x8480	
    992a:	0f 43       	clr	r15		
    992c:	6c 3c       	jmp	$+218    	;abs 0x9a06
    992e:	1f 42 c4 12 	mov	&0x12c4,r15	
    9932:	bf 42 08 00 	mov	#8,	8(r15)	;r2 As==11, 0x0008(r15)
    9936:	8f 43 0a 00 	mov	#0,	10(r15)	;r3 As==00, 0x000a(r15)
    993a:	b0 12 80 84 	call	#0x8480	
    993e:	6b 43       	mov.b	#2,	r11	;r3 As==10
    9940:	4f 4b       	mov.b	r11,	r15	
    9942:	b0 12 b8 98 	call	#0x98b8	
    9946:	5b 53       	inc.b	r11		
    9948:	7b 90 0a 00 	cmp.b	#10,	r11	;#0x000a
    994c:	f9 2b       	jnc	$-12     	;abs 0x9940
    994e:	ed 3f       	jmp	$-36     	;abs 0x992a
    9950:	3e 90 03 00 	cmp	#3,	r14	;#0x0003
    9954:	0c 24       	jz	$+26     	;abs 0x996e
    9956:	2e 92       	cmp	#4,	r14	;r2 As==10
    9958:	d9 23       	jnz	$-76     	;abs 0x990c
    995a:	1f 42 c4 12 	mov	&0x12c4,r15	
    995e:	df 42 f7 12 	mov.b	&0x12f7,8(r15)	;0x0008(r15)
    9962:	08 00 
    9964:	cf 43 09 00 	mov.b	#0,	9(r15)	;r3 As==00, 0x0009(r15)
    9968:	8f 43 0a 00 	mov	#0,	10(r15)	;r3 As==00, 0x000a(r15)
    996c:	dc 3f       	jmp	$-70     	;abs 0x9926
    996e:	1f 42 c4 12 	mov	&0x12c4,r15	
    9972:	df 42 f6 12 	mov.b	&0x12f6,8(r15)	;0x0008(r15)
    9976:	08 00 
    9978:	cf 43 09 00 	mov.b	#0,	9(r15)	;r3 As==00, 0x0009(r15)
    997c:	8f 43 0a 00 	mov	#0,	10(r15)	;r3 As==00, 0x000a(r15)
    9980:	d2 3f       	jmp	$-90     	;abs 0x9926
    9982:	1f 42 c4 12 	mov	&0x12c4,r15	
    9986:	9f 42 f2 12 	mov	&0x12f2,8(r15)	;0x0008(r15)
    998a:	08 00 
    998c:	9f 42 f4 12 	mov	&0x12f4,10(r15)	;0x000a(r15)
    9990:	0a 00 
    9992:	c9 3f       	jmp	$-108    	;abs 0x9926
    9994:	3e 92       	cmp	#8,	r14	;r2 As==11
    9996:	25 24       	jz	$+76     	;abs 0x99e2
    9998:	3e 90 09 00 	cmp	#9,	r14	;#0x0009
    999c:	19 34       	jge	$+52     	;abs 0x99d0
    999e:	3e 90 06 00 	cmp	#6,	r14	;#0x0006
    99a2:	0c 24       	jz	$+26     	;abs 0x99bc
    99a4:	3e 90 07 00 	cmp	#7,	r14	;#0x0007
    99a8:	b1 23       	jnz	$-156    	;abs 0x990c
    99aa:	1f 42 c4 12 	mov	&0x12c4,r15	
    99ae:	9f 42 d2 12 	mov	&0x12d2,8(r15)	;0x0008(r15)
    99b2:	08 00 
    99b4:	9f 42 d4 12 	mov	&0x12d4,10(r15)	;0x000a(r15)
    99b8:	0a 00 
    99ba:	b5 3f       	jmp	$-148    	;abs 0x9926
    99bc:	1f 42 c4 12 	mov	&0x12c4,r15	
    99c0:	df 42 f9 12 	mov.b	&0x12f9,8(r15)	;0x0008(r15)
    99c4:	08 00 
    99c6:	cf 43 09 00 	mov.b	#0,	9(r15)	;r3 As==00, 0x0009(r15)
    99ca:	8f 43 0a 00 	mov	#0,	10(r15)	;r3 As==00, 0x000a(r15)
    99ce:	ab 3f       	jmp	$-168    	;abs 0x9926
    99d0:	3e 90 09 00 	cmp	#9,	r14	;#0x0009
    99d4:	a8 27       	jz	$-174    	;abs 0x9926
    99d6:	3f 40 ff 00 	mov	#255,	r15	;#0x00ff
    99da:	3e 90 ff 00 	cmp	#255,	r14	;#0x00ff
    99de:	13 24       	jz	$+40     	;abs 0x9a06
    99e0:	95 3f       	jmp	$-212    	;abs 0x990c
    99e2:	1f 42 c4 12 	mov	&0x12c4,r15	
    99e6:	bf 40 ab 00 	mov	#171,	8(r15)	;#0x00ab, 0x0008(r15)
    99ea:	08 00 
    99ec:	8f 43 0a 00 	mov	#0,	10(r15)	;r3 As==00, 0x000a(r15)
    99f0:	9a 3f       	jmp	$-202    	;abs 0x9926
    99f2:	1f 42 c4 12 	mov	&0x12c4,r15	
    99f6:	df 42 f8 12 	mov.b	&0x12f8,8(r15)	;0x0008(r15)
    99fa:	08 00 
    99fc:	cf 43 09 00 	mov.b	#0,	9(r15)	;r3 As==00, 0x0009(r15)
    9a00:	8f 43 0a 00 	mov	#0,	10(r15)	;r3 As==00, 0x000a(r15)
    9a04:	90 3f       	jmp	$-222    	;abs 0x9926
    9a06:	3b 41       	pop	r11		
    9a08:	30 41       	ret			

00009a0a <__fixunssfsi>:
    9a0a:	0b 12       	push	r11		
    9a0c:	0a 12       	push	r10		
    9a0e:	0a 4e       	mov	r14,	r10	
    9a10:	0b 4f       	mov	r15,	r11	
    9a12:	0c 43       	clr	r12		
    9a14:	3d 40 00 4f 	mov	#20224,	r13	;#0x4f00
    9a18:	b0 12 44 a1 	call	#0xa144	
    9a1c:	0f 93       	tst	r15		
    9a1e:	0d 38       	jl	$+28     	;abs 0x9a3a
    9a20:	0c 43       	clr	r12		
    9a22:	3d 40 00 cf 	mov	#-12544,r13	;#0xcf00
    9a26:	0e 4a       	mov	r10,	r14	
    9a28:	0f 4b       	mov	r11,	r15	
    9a2a:	b0 12 6a 9c 	call	#0x9c6a	
    9a2e:	b0 12 fc a2 	call	#0xa2fc	
    9a32:	0e 53       	add	#0,	r14	;r3 As==00
    9a34:	3f 60 00 80 	addc	#-32768,r15	;#0x8000
    9a38:	04 3c       	jmp	$+10     	;abs 0x9a42
    9a3a:	0e 4a       	mov	r10,	r14	
    9a3c:	0f 4b       	mov	r11,	r15	
    9a3e:	b0 12 fc a2 	call	#0xa2fc	
    9a42:	3a 41       	pop	r10		
    9a44:	3b 41       	pop	r11		
    9a46:	30 41       	ret			

00009a48 <_fpadd_parts>:
    9a48:	0b 12       	push	r11		
    9a4a:	0a 12       	push	r10		
    9a4c:	09 12       	push	r9		
    9a4e:	08 12       	push	r8		
    9a50:	07 12       	push	r7		
    9a52:	06 12       	push	r6		
    9a54:	05 12       	push	r5		
    9a56:	0b 4f       	mov	r15,	r11	
    9a58:	0a 4e       	mov	r14,	r10	
    9a5a:	09 4d       	mov	r13,	r9	
    9a5c:	0f 43       	clr	r15		
    9a5e:	6e 4b       	mov.b	@r11,	r14	
    9a60:	6e 93       	cmp.b	#2,	r14	;r3 As==10
    9a62:	01 2c       	jc	$+4      	;abs 0x9a66
    9a64:	1f 43       	mov	#1,	r15	;r3 As==01
    9a66:	0f 93       	tst	r15		
    9a68:	18 20       	jnz	$+50     	;abs 0x9a9a
    9a6a:	0c 43       	clr	r12		
    9a6c:	6f 4a       	mov.b	@r10,	r15	
    9a6e:	6f 93       	cmp.b	#2,	r15	;r3 As==10
    9a70:	01 2c       	jc	$+4      	;abs 0x9a74
    9a72:	1c 43       	mov	#1,	r12	;r3 As==01
    9a74:	0c 93       	tst	r12		
    9a76:	3c 20       	jnz	$+122    	;abs 0x9af0
    9a78:	0c 43       	clr	r12		
    9a7a:	6e 92       	cmp.b	#4,	r14	;r2 As==10
    9a7c:	eb 24       	jz	$+472    	;abs 0x9c54
    9a7e:	0c 93       	tst	r12		
    9a80:	10 24       	jz	$+34     	;abs 0x9aa2
    9a82:	0e 43       	clr	r14		
    9a84:	6f 92       	cmp.b	#4,	r15	;r2 As==10
    9a86:	0b 24       	jz	$+24     	;abs 0x9a9e
    9a88:	0e 93       	tst	r14		
    9a8a:	07 24       	jz	$+16     	;abs 0x9a9a
    9a8c:	db 9a 01 00 	cmp.b	1(r10),	1(r11)	;0x0001(r10), 0x0001(r11)
    9a90:	01 00 
    9a92:	03 24       	jz	$+8      	;abs 0x9a9a
    9a94:	3d 40 98 a3 	mov	#-23656,r13	;#0xa398
    9a98:	df 3c       	jmp	$+448    	;abs 0x9c58
    9a9a:	0d 4b       	mov	r11,	r13	
    9a9c:	dd 3c       	jmp	$+444    	;abs 0x9c58
    9a9e:	1e 43       	mov	#1,	r14	;r3 As==01
    9aa0:	f3 3f       	jmp	$-24     	;abs 0x9a88
    9aa2:	0d 43       	clr	r13		
    9aa4:	6f 92       	cmp.b	#4,	r15	;r2 As==10
    9aa6:	d4 24       	jz	$+426    	;abs 0x9c50
    9aa8:	0d 93       	tst	r13		
    9aaa:	22 20       	jnz	$+70     	;abs 0x9af0
    9aac:	0d 43       	clr	r13		
    9aae:	6f 93       	cmp.b	#2,	r15	;r3 As==10
    9ab0:	cd 24       	jz	$+412    	;abs 0x9c4c
    9ab2:	0d 93       	tst	r13		
    9ab4:	18 24       	jz	$+50     	;abs 0x9ae6
    9ab6:	0f 43       	clr	r15		
    9ab8:	6e 93       	cmp.b	#2,	r14	;r3 As==10
    9aba:	13 24       	jz	$+40     	;abs 0x9ae2
    9abc:	0f 93       	tst	r15		
    9abe:	ed 27       	jz	$-36     	;abs 0x9a9a
    9ac0:	0f 4b       	mov	r11,	r15	
    9ac2:	b9 4f 00 00 	mov	@r15+,	0(r9)	;0x0000(r9)
    9ac6:	b9 4f 02 00 	mov	@r15+,	2(r9)	;0x0002(r9)
    9aca:	b9 4f 04 00 	mov	@r15+,	4(r9)	;0x0004(r9)
    9ace:	b9 4f 06 00 	mov	@r15+,	6(r9)	;0x0006(r9)
    9ad2:	5b 4b 01 00 	mov.b	1(r11),	r11	;0x0001(r11)
    9ad6:	5b fa 01 00 	and.b	1(r10),	r11	;0x0001(r10)
    9ada:	c9 4b 01 00 	mov.b	r11,	1(r9)	;0x0001(r9)
    9ade:	0d 49       	mov	r9,	r13	
    9ae0:	bb 3c       	jmp	$+376    	;abs 0x9c58
    9ae2:	1f 43       	mov	#1,	r15	;r3 As==01
    9ae4:	eb 3f       	jmp	$-40     	;abs 0x9abc
    9ae6:	0f 43       	clr	r15		
    9ae8:	6e 93       	cmp.b	#2,	r14	;r3 As==10
    9aea:	ae 24       	jz	$+350    	;abs 0x9c48
    9aec:	0f 93       	tst	r15		
    9aee:	02 24       	jz	$+6      	;abs 0x9af4
    9af0:	0d 4a       	mov	r10,	r13	
    9af2:	b2 3c       	jmp	$+358    	;abs 0x9c58
    9af4:	15 4b 02 00 	mov	2(r11),	r5	;0x0002(r11)
    9af8:	16 4a 02 00 	mov	2(r10),	r6	;0x0002(r10)
    9afc:	1c 4b 04 00 	mov	4(r11),	r12	;0x0004(r11)
    9b00:	1d 4b 06 00 	mov	6(r11),	r13	;0x0006(r11)
    9b04:	17 4a 04 00 	mov	4(r10),	r7	;0x0004(r10)
    9b08:	18 4a 06 00 	mov	6(r10),	r8	;0x0006(r10)
    9b0c:	0f 45       	mov	r5,	r15	
    9b0e:	0f 86       	sub	r6,	r15	
    9b10:	98 30       	jn	$+306    	;abs 0x9c42
    9b12:	3f 90 20 00 	cmp	#32,	r15	;#0x0020
    9b16:	8c 34       	jge	$+282    	;abs 0x9c30
    9b18:	06 95       	cmp	r5,	r6	
    9b1a:	10 34       	jge	$+34     	;abs 0x9b3c
    9b1c:	0f 45       	mov	r5,	r15	
    9b1e:	0f 86       	sub	r6,	r15	
    9b20:	06 4f       	mov	r15,	r6	
    9b22:	36 53       	add	#-1,	r6	;r3 As==11
    9b24:	0e 47       	mov	r7,	r14	
    9b26:	0f 48       	mov	r8,	r15	
    9b28:	1e f3       	and	#1,	r14	;r3 As==01
    9b2a:	0f f3       	and	#0,	r15	;r3 As==00
    9b2c:	12 c3       	clrc			
    9b2e:	08 10       	rrc	r8		
    9b30:	07 10       	rrc	r7		
    9b32:	07 de       	bis	r14,	r7	
    9b34:	08 df       	bis	r15,	r8	
    9b36:	06 93       	tst	r6		
    9b38:	f4 23       	jnz	$-22     	;abs 0x9b22
    9b3a:	06 45       	mov	r5,	r6	
    9b3c:	05 96       	cmp	r6,	r5	
    9b3e:	0c 34       	jge	$+26     	;abs 0x9b58
    9b40:	15 53       	inc	r5		
    9b42:	0e 4c       	mov	r12,	r14	
    9b44:	0f 4d       	mov	r13,	r15	
    9b46:	1e f3       	and	#1,	r14	;r3 As==01
    9b48:	0f f3       	and	#0,	r15	;r3 As==00
    9b4a:	12 c3       	clrc			
    9b4c:	0d 10       	rrc	r13		
    9b4e:	0c 10       	rrc	r12		
    9b50:	0c de       	bis	r14,	r12	
    9b52:	0d df       	bis	r15,	r13	
    9b54:	05 96       	cmp	r6,	r5	
    9b56:	f4 3b       	jl	$-22     	;abs 0x9b40
    9b58:	5f 4b 01 00 	mov.b	1(r11),	r15	;0x0001(r11)
    9b5c:	5f 9a 01 00 	cmp.b	1(r10),	r15	;0x0001(r10)
    9b60:	59 24       	jz	$+180    	;abs 0x9c14
    9b62:	4f 93       	tst.b	r15		
    9b64:	52 24       	jz	$+166    	;abs 0x9c0a
    9b66:	0e 47       	mov	r7,	r14	
    9b68:	0f 48       	mov	r8,	r15	
    9b6a:	0e 8c       	sub	r12,	r14	
    9b6c:	0f 7d       	subc	r13,	r15	
    9b6e:	0f 93       	tst	r15		
    9b70:	43 38       	jl	$+136    	;abs 0x9bf8
    9b72:	c9 43 01 00 	mov.b	#0,	1(r9)	;r3 As==00, 0x0001(r9)
    9b76:	89 45 02 00 	mov	r5,	2(r9)	;0x0002(r9)
    9b7a:	89 4e 04 00 	mov	r14,	4(r9)	;0x0004(r9)
    9b7e:	89 4f 06 00 	mov	r15,	6(r9)	;0x0006(r9)
    9b82:	1b 49 04 00 	mov	4(r9),	r11	;0x0004(r9)
    9b86:	1c 49 06 00 	mov	6(r9),	r12	;0x0006(r9)
    9b8a:	0e 4b       	mov	r11,	r14	
    9b8c:	0f 4c       	mov	r12,	r15	
    9b8e:	3e 53       	add	#-1,	r14	;r3 As==11
    9b90:	3f 63       	addc	#-1,	r15	;r3 As==11
    9b92:	3e 83       	sub	#-1,	r14	;r3 As==11
    9b94:	3f 70 ff 3f 	subc	#16383,	r15	;#0x3fff
    9b98:	19 2c       	jc	$+52     	;abs 0x9bcc
    9b9a:	0e 4b       	mov	r11,	r14	
    9b9c:	0f 4c       	mov	r12,	r15	
    9b9e:	0e 5e       	rla	r14		
    9ba0:	0f 6f       	rlc	r15		
    9ba2:	89 4e 04 00 	mov	r14,	4(r9)	;0x0004(r9)
    9ba6:	89 4f 06 00 	mov	r15,	6(r9)	;0x0006(r9)
    9baa:	b9 53 02 00 	add	#-1,	2(r9)	;r3 As==11, 0x0002(r9)
    9bae:	0c 4e       	mov	r14,	r12	
    9bb0:	0d 4f       	mov	r15,	r13	
    9bb2:	3c 53       	add	#-1,	r12	;r3 As==11
    9bb4:	3d 63       	addc	#-1,	r13	;r3 As==11
    9bb6:	3c 83       	sub	#-1,	r12	;r3 As==11
    9bb8:	3d 70 ff 3f 	subc	#16383,	r13	;#0x3fff
    9bbc:	05 2c       	jc	$+12     	;abs 0x9bc8
    9bbe:	1b 49 04 00 	mov	4(r9),	r11	;0x0004(r9)
    9bc2:	1c 49 06 00 	mov	6(r9),	r12	;0x0006(r9)
    9bc6:	e9 3f       	jmp	$-44     	;abs 0x9b9a
    9bc8:	0b 4e       	mov	r14,	r11	
    9bca:	0c 4f       	mov	r15,	r12	
    9bcc:	f9 40 03 00 	mov.b	#3,	0(r9)	;#0x0003, 0x0000(r9)
    9bd0:	00 00 
    9bd2:	3c 90 00 80 	cmp	#-32768,r12	;#0x8000
    9bd6:	83 2b       	jnc	$-248    	;abs 0x9ade
    9bd8:	0e 4b       	mov	r11,	r14	
    9bda:	0f 4c       	mov	r12,	r15	
    9bdc:	12 c3       	clrc			
    9bde:	0f 10       	rrc	r15		
    9be0:	0e 10       	rrc	r14		
    9be2:	1b f3       	and	#1,	r11	;r3 As==01
    9be4:	0c f3       	and	#0,	r12	;r3 As==00
    9be6:	0b de       	bis	r14,	r11	
    9be8:	0c df       	bis	r15,	r12	
    9bea:	89 4b 04 00 	mov	r11,	4(r9)	;0x0004(r9)
    9bee:	89 4c 06 00 	mov	r12,	6(r9)	;0x0006(r9)
    9bf2:	99 53 02 00 	inc	2(r9)		;0x0002(r9)
    9bf6:	73 3f       	jmp	$-280    	;abs 0x9ade
    9bf8:	d9 43 01 00 	mov.b	#1,	1(r9)	;r3 As==01, 0x0001(r9)
    9bfc:	89 45 02 00 	mov	r5,	2(r9)	;0x0002(r9)
    9c00:	3e e3       	inv	r14		
    9c02:	3f e3       	inv	r15		
    9c04:	1e 53       	inc	r14		
    9c06:	0f 63       	adc	r15		
    9c08:	b8 3f       	jmp	$-142    	;abs 0x9b7a
    9c0a:	0e 4c       	mov	r12,	r14	
    9c0c:	0f 4d       	mov	r13,	r15	
    9c0e:	0e 87       	sub	r7,	r14	
    9c10:	0f 78       	subc	r8,	r15	
    9c12:	ad 3f       	jmp	$-164    	;abs 0x9b6e
    9c14:	d9 4b 01 00 	mov.b	1(r11),	1(r9)	;0x0001(r11), 0x0001(r9)
    9c18:	01 00 
    9c1a:	89 45 02 00 	mov	r5,	2(r9)	;0x0002(r9)
    9c1e:	0e 4c       	mov	r12,	r14	
    9c20:	0f 4d       	mov	r13,	r15	
    9c22:	0e 57       	add	r7,	r14	
    9c24:	0f 68       	addc	r8,	r15	
    9c26:	89 4e 04 00 	mov	r14,	4(r9)	;0x0004(r9)
    9c2a:	89 4f 06 00 	mov	r15,	6(r9)	;0x0006(r9)
    9c2e:	cc 3f       	jmp	$-102    	;abs 0x9bc8
    9c30:	06 95       	cmp	r5,	r6	
    9c32:	03 34       	jge	$+8      	;abs 0x9c3a
    9c34:	07 43       	clr	r7		
    9c36:	08 43       	clr	r8		
    9c38:	8f 3f       	jmp	$-224    	;abs 0x9b58
    9c3a:	05 46       	mov	r6,	r5	
    9c3c:	0c 43       	clr	r12		
    9c3e:	0d 43       	clr	r13		
    9c40:	8b 3f       	jmp	$-232    	;abs 0x9b58
    9c42:	3f e3       	inv	r15		
    9c44:	1f 53       	inc	r15		
    9c46:	65 3f       	jmp	$-308    	;abs 0x9b12
    9c48:	1f 43       	mov	#1,	r15	;r3 As==01
    9c4a:	50 3f       	jmp	$-350    	;abs 0x9aec
    9c4c:	1d 43       	mov	#1,	r13	;r3 As==01
    9c4e:	31 3f       	jmp	$-412    	;abs 0x9ab2
    9c50:	1d 43       	mov	#1,	r13	;r3 As==01
    9c52:	2a 3f       	jmp	$-426    	;abs 0x9aa8
    9c54:	1c 43       	mov	#1,	r12	;r3 As==01
    9c56:	13 3f       	jmp	$-472    	;abs 0x9a7e
    9c58:	0f 4d       	mov	r13,	r15	
    9c5a:	35 41       	pop	r5		
    9c5c:	36 41       	pop	r6		
    9c5e:	37 41       	pop	r7		
    9c60:	38 41       	pop	r8		
    9c62:	39 41       	pop	r9		
    9c64:	3a 41       	pop	r10		
    9c66:	3b 41       	pop	r11		
    9c68:	30 41       	ret			

00009c6a <__addsf3>:
    9c6a:	0b 12       	push	r11		
    9c6c:	31 80 20 00 	sub	#32,	r1	;#0x0020
    9c70:	81 4e 18 00 	mov	r14,	24(r1)	;0x0018(r1)
    9c74:	81 4f 1a 00 	mov	r15,	26(r1)	;0x001a(r1)
    9c78:	81 4c 1c 00 	mov	r12,	28(r1)	;0x001c(r1)
    9c7c:	81 4d 1e 00 	mov	r13,	30(r1)	;0x001e(r1)
    9c80:	0e 41       	mov	r1,	r14	
    9c82:	0f 41       	mov	r1,	r15	
    9c84:	3f 50 18 00 	add	#24,	r15	;#0x0018
    9c88:	b0 12 50 a5 	call	#0xa550	
    9c8c:	0b 41       	mov	r1,	r11	
    9c8e:	3b 52       	add	#8,	r11	;r2 As==11
    9c90:	0e 4b       	mov	r11,	r14	
    9c92:	0f 41       	mov	r1,	r15	
    9c94:	3f 50 1c 00 	add	#28,	r15	;#0x001c
    9c98:	b0 12 50 a5 	call	#0xa550	
    9c9c:	0d 41       	mov	r1,	r13	
    9c9e:	3d 50 10 00 	add	#16,	r13	;#0x0010
    9ca2:	0e 4b       	mov	r11,	r14	
    9ca4:	0f 41       	mov	r1,	r15	
    9ca6:	b0 12 48 9a 	call	#0x9a48	
    9caa:	b0 12 a0 a3 	call	#0xa3a0	
    9cae:	31 50 20 00 	add	#32,	r1	;#0x0020
    9cb2:	3b 41       	pop	r11		
    9cb4:	30 41       	ret			

00009cb6 <__subsf3>:
    9cb6:	0b 12       	push	r11		
    9cb8:	31 80 20 00 	sub	#32,	r1	;#0x0020
    9cbc:	81 4e 18 00 	mov	r14,	24(r1)	;0x0018(r1)
    9cc0:	81 4f 1a 00 	mov	r15,	26(r1)	;0x001a(r1)
    9cc4:	81 4c 1c 00 	mov	r12,	28(r1)	;0x001c(r1)
    9cc8:	81 4d 1e 00 	mov	r13,	30(r1)	;0x001e(r1)
    9ccc:	0e 41       	mov	r1,	r14	
    9cce:	0f 41       	mov	r1,	r15	
    9cd0:	3f 50 18 00 	add	#24,	r15	;#0x0018
    9cd4:	b0 12 50 a5 	call	#0xa550	
    9cd8:	0b 41       	mov	r1,	r11	
    9cda:	3b 52       	add	#8,	r11	;r2 As==11
    9cdc:	0e 4b       	mov	r11,	r14	
    9cde:	0f 41       	mov	r1,	r15	
    9ce0:	3f 50 1c 00 	add	#28,	r15	;#0x001c
    9ce4:	b0 12 50 a5 	call	#0xa550	
    9ce8:	d1 e3 09 00 	xor.b	#1,	9(r1)	;r3 As==01, 0x0009(r1)
    9cec:	0d 41       	mov	r1,	r13	
    9cee:	3d 50 10 00 	add	#16,	r13	;#0x0010
    9cf2:	0e 4b       	mov	r11,	r14	
    9cf4:	0f 41       	mov	r1,	r15	
    9cf6:	b0 12 48 9a 	call	#0x9a48	
    9cfa:	b0 12 a0 a3 	call	#0xa3a0	
    9cfe:	31 50 20 00 	add	#32,	r1	;#0x0020
    9d02:	3b 41       	pop	r11		
    9d04:	30 41       	ret			

00009d06 <__mulsf3>:
    9d06:	0b 12       	push	r11		
    9d08:	31 80 20 00 	sub	#32,	r1	;#0x0020
    9d0c:	81 4e 18 00 	mov	r14,	24(r1)	;0x0018(r1)
    9d10:	81 4f 1a 00 	mov	r15,	26(r1)	;0x001a(r1)
    9d14:	81 4c 1c 00 	mov	r12,	28(r1)	;0x001c(r1)
    9d18:	81 4d 1e 00 	mov	r13,	30(r1)	;0x001e(r1)
    9d1c:	0e 41       	mov	r1,	r14	
    9d1e:	0f 41       	mov	r1,	r15	
    9d20:	3f 50 18 00 	add	#24,	r15	;#0x0018
    9d24:	b0 12 50 a5 	call	#0xa550	
    9d28:	0b 41       	mov	r1,	r11	
    9d2a:	3b 52       	add	#8,	r11	;r2 As==11
    9d2c:	0e 4b       	mov	r11,	r14	
    9d2e:	0f 41       	mov	r1,	r15	
    9d30:	3f 50 1c 00 	add	#28,	r15	;#0x001c
    9d34:	b0 12 50 a5 	call	#0xa550	
    9d38:	0d 41       	mov	r1,	r13	
    9d3a:	3d 50 10 00 	add	#16,	r13	;#0x0010
    9d3e:	0e 4b       	mov	r11,	r14	
    9d40:	0f 41       	mov	r1,	r15	
    9d42:	b0 12 52 9d 	call	#0x9d52	
    9d46:	b0 12 a0 a3 	call	#0xa3a0	
    9d4a:	31 50 20 00 	add	#32,	r1	;#0x0020
    9d4e:	3b 41       	pop	r11		
    9d50:	30 41       	ret			

00009d52 <_fpmul_parts>:
    9d52:	0b 12       	push	r11		
    9d54:	0a 12       	push	r10		
    9d56:	09 12       	push	r9		
    9d58:	08 12       	push	r8		
    9d5a:	07 12       	push	r7		
    9d5c:	06 12       	push	r6		
    9d5e:	05 12       	push	r5		
    9d60:	04 12       	push	r4		
    9d62:	31 80 0a 00 	sub	#10,	r1	;#0x000a
    9d66:	09 4f       	mov	r15,	r9	
    9d68:	06 4e       	mov	r14,	r6	
    9d6a:	81 4d 00 00 	mov	r13,	0(r1)	;0x0000(r1)
    9d6e:	81 43 02 00 	mov	#0,	2(r1)	;r3 As==00, 0x0002(r1)
    9d72:	81 43 04 00 	mov	#0,	4(r1)	;r3 As==00, 0x0004(r1)
    9d76:	04 43       	clr	r4		
    9d78:	05 43       	clr	r5		
    9d7a:	0f 43       	clr	r15		
    9d7c:	6e 49       	mov.b	@r9,	r14	
    9d7e:	6e 93       	cmp.b	#2,	r14	;r3 As==10
    9d80:	01 2c       	jc	$+4      	;abs 0x9d84
    9d82:	1f 43       	mov	#1,	r15	;r3 As==01
    9d84:	0f 93       	tst	r15		
    9d86:	11 20       	jnz	$+36     	;abs 0x9daa
    9d88:	0c 43       	clr	r12		
    9d8a:	6f 46       	mov.b	@r6,	r15	
    9d8c:	6f 93       	cmp.b	#2,	r15	;r3 As==10
    9d8e:	01 2c       	jc	$+4      	;abs 0x9d92
    9d90:	1c 43       	mov	#1,	r12	;r3 As==01
    9d92:	0c 93       	tst	r12		
    9d94:	23 20       	jnz	$+72     	;abs 0x9ddc
    9d96:	0c 43       	clr	r12		
    9d98:	6e 92       	cmp.b	#4,	r14	;r2 As==10
    9d9a:	dc 24       	jz	$+442    	;abs 0x9f54
    9d9c:	0c 93       	tst	r12		
    9d9e:	14 24       	jz	$+42     	;abs 0x9dc8
    9da0:	0e 43       	clr	r14		
    9da2:	6f 93       	cmp.b	#2,	r15	;r3 As==10
    9da4:	0f 24       	jz	$+32     	;abs 0x9dc4
    9da6:	0e 93       	tst	r14		
    9da8:	0a 20       	jnz	$+22     	;abs 0x9dbe
    9daa:	4f 43       	clr.b	r15		
    9dac:	d9 96 01 00 	cmp.b	1(r6),	1(r9)	;0x0001(r6), 0x0001(r9)
    9db0:	01 00 
    9db2:	01 24       	jz	$+4      	;abs 0x9db6
    9db4:	5f 43       	mov.b	#1,	r15	;r3 As==01
    9db6:	c9 4f 01 00 	mov.b	r15,	1(r9)	;0x0001(r9)
    9dba:	0d 49       	mov	r9,	r13	
    9dbc:	cd 3c       	jmp	$+412    	;abs 0x9f58
    9dbe:	3d 40 98 a3 	mov	#-23656,r13	;#0xa398
    9dc2:	ca 3c       	jmp	$+406    	;abs 0x9f58
    9dc4:	1e 43       	mov	#1,	r14	;r3 As==01
    9dc6:	ef 3f       	jmp	$-32     	;abs 0x9da6
    9dc8:	0d 43       	clr	r13		
    9dca:	6f 92       	cmp.b	#4,	r15	;r2 As==10
    9dcc:	c1 24       	jz	$+388    	;abs 0x9f50
    9dce:	0d 93       	tst	r13		
    9dd0:	11 24       	jz	$+36     	;abs 0x9df4
    9dd2:	0f 43       	clr	r15		
    9dd4:	6e 93       	cmp.b	#2,	r14	;r3 As==10
    9dd6:	0c 24       	jz	$+26     	;abs 0x9df0
    9dd8:	0f 93       	tst	r15		
    9dda:	f1 23       	jnz	$-28     	;abs 0x9dbe
    9ddc:	4f 43       	clr.b	r15		
    9dde:	d9 96 01 00 	cmp.b	1(r6),	1(r9)	;0x0001(r6), 0x0001(r9)
    9de2:	01 00 
    9de4:	01 24       	jz	$+4      	;abs 0x9de8
    9de6:	5f 43       	mov.b	#1,	r15	;r3 As==01
    9de8:	c6 4f 01 00 	mov.b	r15,	1(r6)	;0x0001(r6)
    9dec:	0d 46       	mov	r6,	r13	
    9dee:	b4 3c       	jmp	$+362    	;abs 0x9f58
    9df0:	1f 43       	mov	#1,	r15	;r3 As==01
    9df2:	f2 3f       	jmp	$-26     	;abs 0x9dd8
    9df4:	0d 43       	clr	r13		
    9df6:	6e 93       	cmp.b	#2,	r14	;r3 As==10
    9df8:	a9 24       	jz	$+340    	;abs 0x9f4c
    9dfa:	0d 93       	tst	r13		
    9dfc:	d6 23       	jnz	$-82     	;abs 0x9daa
    9dfe:	0e 43       	clr	r14		
    9e00:	6f 93       	cmp.b	#2,	r15	;r3 As==10
    9e02:	a2 24       	jz	$+326    	;abs 0x9f48
    9e04:	0e 93       	tst	r14		
    9e06:	ea 23       	jnz	$-42     	;abs 0x9ddc
    9e08:	1a 49 04 00 	mov	4(r9),	r10	;0x0004(r9)
    9e0c:	1b 49 06 00 	mov	6(r9),	r11	;0x0006(r9)
    9e10:	1c 46 04 00 	mov	4(r6),	r12	;0x0004(r6)
    9e14:	1d 46 06 00 	mov	6(r6),	r13	;0x0006(r6)
    9e18:	07 43       	clr	r7		
    9e1a:	08 43       	clr	r8		
    9e1c:	b1 40 1f 00 	mov	#31,	6(r1)	;#0x001f, 0x0006(r1)
    9e20:	06 00 
    9e22:	0e 4a       	mov	r10,	r14	
    9e24:	0f 4b       	mov	r11,	r15	
    9e26:	1e f3       	and	#1,	r14	;r3 As==01
    9e28:	0f f3       	and	#0,	r15	;r3 As==00
    9e2a:	0e 93       	tst	r14		
    9e2c:	19 24       	jz	$+52     	;abs 0x9e60
    9e2e:	81 43 08 00 	mov	#0,	8(r1)	;r3 As==00, 0x0008(r1)
    9e32:	81 5c 02 00 	add	r12,	2(r1)	;0x0002(r1)
    9e36:	81 6d 04 00 	addc	r13,	4(r1)	;0x0004(r1)
    9e3a:	1e 41 02 00 	mov	2(r1),	r14	;0x0002(r1)
    9e3e:	1f 41 04 00 	mov	4(r1),	r15	;0x0004(r1)
    9e42:	0e 8c       	sub	r12,	r14	
    9e44:	0f 7d       	subc	r13,	r15	
    9e46:	02 2c       	jc	$+6      	;abs 0x9e4c
    9e48:	91 43 08 00 	mov	#1,	8(r1)	;r3 As==01, 0x0008(r1)
    9e4c:	1e 41 08 00 	mov	8(r1),	r14	;0x0008(r1)
    9e50:	0f 4e       	mov	r14,	r15	
    9e52:	0f 5f       	rla	r15		
    9e54:	0f 7f       	subc	r15,	r15	
    9e56:	3f e3       	inv	r15		
    9e58:	0e 57       	add	r7,	r14	
    9e5a:	0f 68       	addc	r8,	r15	
    9e5c:	04 5e       	add	r14,	r4	
    9e5e:	05 6f       	addc	r15,	r5	
    9e60:	07 57       	rla	r7		
    9e62:	08 68       	rlc	r8		
    9e64:	3d b0 00 80 	bit	#-32768,r13	;#0x8000
    9e68:	01 24       	jz	$+4      	;abs 0x9e6c
    9e6a:	17 d3       	bis	#1,	r7	;r3 As==01
    9e6c:	0c 5c       	rla	r12		
    9e6e:	0d 6d       	rlc	r13		
    9e70:	12 c3       	clrc			
    9e72:	0b 10       	rrc	r11		
    9e74:	0a 10       	rrc	r10		
    9e76:	b1 53 06 00 	add	#-1,	6(r1)	;r3 As==11, 0x0006(r1)
    9e7a:	b1 b0 00 80 	bit	#-32768,6(r1)	;#0x8000, 0x0006(r1)
    9e7e:	06 00 
    9e80:	d0 37       	jge	$-94     	;abs 0x9e22
    9e82:	1f 49 02 00 	mov	2(r9),	r15	;0x0002(r9)
    9e86:	1f 56 02 00 	add	2(r6),	r15	;0x0002(r6)
    9e8a:	2d 41       	mov	@r1,	r13	
    9e8c:	8d 4f 02 00 	mov	r15,	2(r13)	;0x0002(r13)
    9e90:	4e 43       	clr.b	r14		
    9e92:	d9 96 01 00 	cmp.b	1(r6),	1(r9)	;0x0001(r6), 0x0001(r9)
    9e96:	01 00 
    9e98:	01 24       	jz	$+4      	;abs 0x9e9c
    9e9a:	5e 43       	mov.b	#1,	r14	;r3 As==01
    9e9c:	2d 41       	mov	@r1,	r13	
    9e9e:	cd 4e 01 00 	mov.b	r14,	1(r13)	;0x0001(r13)
    9ea2:	2f 53       	incd	r15		
    9ea4:	8d 4f 02 00 	mov	r15,	2(r13)	;0x0002(r13)
    9ea8:	35 90 00 80 	cmp	#-32768,r5	;#0x8000
    9eac:	17 28       	jnc	$+48     	;abs 0x9edc
    9eae:	2e 41       	mov	@r1,	r14	
    9eb0:	9e 53 02 00 	inc	2(r14)		;0x0002(r14)
    9eb4:	0e 44       	mov	r4,	r14	
    9eb6:	0f 45       	mov	r5,	r15	
    9eb8:	1e f3       	and	#1,	r14	;r3 As==01
    9eba:	0f f3       	and	#0,	r15	;r3 As==00
    9ebc:	0e 93       	tst	r14		
    9ebe:	08 24       	jz	$+18     	;abs 0x9ed0
    9ec0:	12 c3       	clrc			
    9ec2:	11 10 04 00 	rrc	4(r1)		;0x0004(r1)
    9ec6:	11 10 02 00 	rrc	2(r1)		;0x0002(r1)
    9eca:	b1 d0 00 80 	bis	#-32768,4(r1)	;#0x8000, 0x0004(r1)
    9ece:	04 00 
    9ed0:	12 c3       	clrc			
    9ed2:	05 10       	rrc	r5		
    9ed4:	04 10       	rrc	r4		
    9ed6:	35 90 00 80 	cmp	#-32768,r5	;#0x8000
    9eda:	e9 2f       	jc	$-44     	;abs 0x9eae
    9edc:	35 90 00 40 	cmp	#16384,	r5	;#0x4000
    9ee0:	13 2c       	jc	$+40     	;abs 0x9f08
    9ee2:	2f 41       	mov	@r1,	r15	
    9ee4:	bf 53 02 00 	add	#-1,	2(r15)	;r3 As==11, 0x0002(r15)
    9ee8:	04 54       	rla	r4		
    9eea:	05 65       	rlc	r5		
    9eec:	b1 b0 00 80 	bit	#-32768,4(r1)	;#0x8000, 0x0004(r1)
    9ef0:	04 00 
    9ef2:	01 24       	jz	$+4      	;abs 0x9ef6
    9ef4:	14 d3       	bis	#1,	r4	;r3 As==01
    9ef6:	91 51 02 00 	rla	2(r1)		;0x0002(r1)
    9efa:	02 00 
    9efc:	91 61 04 00 	rlc	4(r1)		;0x0004(r1)
    9f00:	04 00 
    9f02:	35 90 00 40 	cmp	#16384,	r5	;#0x4000
    9f06:	ed 2b       	jnc	$-36     	;abs 0x9ee2
    9f08:	0e 44       	mov	r4,	r14	
    9f0a:	0f 45       	mov	r5,	r15	
    9f0c:	3e f0 7f 00 	and	#127,	r14	;#0x007f
    9f10:	0f f3       	and	#0,	r15	;r3 As==00
    9f12:	3e 90 40 00 	cmp	#64,	r14	;#0x0040
    9f16:	02 20       	jnz	$+6      	;abs 0x9f1c
    9f18:	0f 93       	tst	r15		
    9f1a:	0a 24       	jz	$+22     	;abs 0x9f30
    9f1c:	2d 41       	mov	@r1,	r13	
    9f1e:	8d 44 04 00 	mov	r4,	4(r13)	;0x0004(r13)
    9f22:	8d 45 06 00 	mov	r5,	6(r13)	;0x0006(r13)
    9f26:	fd 40 03 00 	mov.b	#3,	0(r13)	;#0x0003, 0x0000(r13)
    9f2a:	00 00 
    9f2c:	2d 41       	mov	@r1,	r13	
    9f2e:	14 3c       	jmp	$+42     	;abs 0x9f58
    9f30:	44 93       	tst.b	r4		
    9f32:	06 38       	jl	$+14     	;abs 0x9f40
    9f34:	81 93 02 00 	tst	2(r1)		;0x0002(r1)
    9f38:	03 20       	jnz	$+8      	;abs 0x9f40
    9f3a:	81 93 04 00 	tst	4(r1)		;0x0004(r1)
    9f3e:	ee 27       	jz	$-34     	;abs 0x9f1c
    9f40:	34 50 40 00 	add	#64,	r4	;#0x0040
    9f44:	05 63       	adc	r5		
    9f46:	ea 3f       	jmp	$-42     	;abs 0x9f1c
    9f48:	1e 43       	mov	#1,	r14	;r3 As==01
    9f4a:	5c 3f       	jmp	$-326    	;abs 0x9e04
    9f4c:	1d 43       	mov	#1,	r13	;r3 As==01
    9f4e:	55 3f       	jmp	$-340    	;abs 0x9dfa
    9f50:	1d 43       	mov	#1,	r13	;r3 As==01
    9f52:	3d 3f       	jmp	$-388    	;abs 0x9dce
    9f54:	1c 43       	mov	#1,	r12	;r3 As==01
    9f56:	22 3f       	jmp	$-442    	;abs 0x9d9c
    9f58:	0f 4d       	mov	r13,	r15	
    9f5a:	31 50 0a 00 	add	#10,	r1	;#0x000a
    9f5e:	34 41       	pop	r4		
    9f60:	35 41       	pop	r5		
    9f62:	36 41       	pop	r6		
    9f64:	37 41       	pop	r7		
    9f66:	38 41       	pop	r8		
    9f68:	39 41       	pop	r9		
    9f6a:	3a 41       	pop	r10		
    9f6c:	3b 41       	pop	r11		
    9f6e:	30 41       	ret			

00009f70 <__divsf3>:
    9f70:	0b 12       	push	r11		
    9f72:	31 80 18 00 	sub	#24,	r1	;#0x0018
    9f76:	81 4e 10 00 	mov	r14,	16(r1)	;0x0010(r1)
    9f7a:	81 4f 12 00 	mov	r15,	18(r1)	;0x0012(r1)
    9f7e:	81 4c 14 00 	mov	r12,	20(r1)	;0x0014(r1)
    9f82:	81 4d 16 00 	mov	r13,	22(r1)	;0x0016(r1)
    9f86:	0e 41       	mov	r1,	r14	
    9f88:	0f 41       	mov	r1,	r15	
    9f8a:	3f 50 10 00 	add	#16,	r15	;#0x0010
    9f8e:	b0 12 50 a5 	call	#0xa550	
    9f92:	0b 41       	mov	r1,	r11	
    9f94:	3b 52       	add	#8,	r11	;r2 As==11
    9f96:	0e 4b       	mov	r11,	r14	
    9f98:	0f 41       	mov	r1,	r15	
    9f9a:	3f 50 14 00 	add	#20,	r15	;#0x0014
    9f9e:	b0 12 50 a5 	call	#0xa550	
    9fa2:	0e 4b       	mov	r11,	r14	
    9fa4:	0f 41       	mov	r1,	r15	
    9fa6:	b0 12 b6 9f 	call	#0x9fb6	
    9faa:	b0 12 a0 a3 	call	#0xa3a0	
    9fae:	31 50 18 00 	add	#24,	r1	;#0x0018
    9fb2:	3b 41       	pop	r11		
    9fb4:	30 41       	ret			

00009fb6 <_fpdiv_parts>:
    9fb6:	0b 12       	push	r11		
    9fb8:	0a 12       	push	r10		
    9fba:	09 12       	push	r9		
    9fbc:	08 12       	push	r8		
    9fbe:	07 12       	push	r7		
    9fc0:	06 12       	push	r6		
    9fc2:	05 12       	push	r5		
    9fc4:	0b 4f       	mov	r15,	r11	
    9fc6:	0c 43       	clr	r12		
    9fc8:	6d 4f       	mov.b	@r15,	r13	
    9fca:	6d 93       	cmp.b	#2,	r13	;r3 As==10
    9fcc:	01 2c       	jc	$+4      	;abs 0x9fd0
    9fce:	1c 43       	mov	#1,	r12	;r3 As==01
    9fd0:	0c 93       	tst	r12		
    9fd2:	16 20       	jnz	$+46     	;abs 0xa000
    9fd4:	0a 43       	clr	r10		
    9fd6:	6c 4e       	mov.b	@r14,	r12	
    9fd8:	6c 93       	cmp.b	#2,	r12	;r3 As==10
    9fda:	01 2c       	jc	$+4      	;abs 0x9fde
    9fdc:	1a 43       	mov	#1,	r10	;r3 As==01
    9fde:	0a 93       	tst	r10		
    9fe0:	77 20       	jnz	$+240    	;abs 0xa0d0
    9fe2:	db ee 01 00 	xor.b	1(r14),	1(r11)	;0x0001(r14), 0x0001(r11)
    9fe6:	01 00 
    9fe8:	0f 43       	clr	r15		
    9fea:	6d 92       	cmp.b	#4,	r13	;r2 As==10
    9fec:	6f 24       	jz	$+224    	;abs 0xa0cc
    9fee:	0f 93       	tst	r15		
    9ff0:	05 20       	jnz	$+12     	;abs 0x9ffc
    9ff2:	0f 43       	clr	r15		
    9ff4:	6d 93       	cmp.b	#2,	r13	;r3 As==10
    9ff6:	68 24       	jz	$+210    	;abs 0xa0c8
    9ff8:	0f 93       	tst	r15		
    9ffa:	07 24       	jz	$+16     	;abs 0xa00a
    9ffc:	4d 9c       	cmp.b	r12,	r13	
    9ffe:	02 24       	jz	$+6      	;abs 0xa004
    a000:	0e 4b       	mov	r11,	r14	
    a002:	66 3c       	jmp	$+206    	;abs 0xa0d0
    a004:	3e 40 98 a3 	mov	#-23656,r14	;#0xa398
    a008:	63 3c       	jmp	$+200    	;abs 0xa0d0
    a00a:	0f 43       	clr	r15		
    a00c:	6c 92       	cmp.b	#4,	r12	;r2 As==10
    a00e:	5a 24       	jz	$+182    	;abs 0xa0c4
    a010:	0f 93       	tst	r15		
    a012:	07 24       	jz	$+16     	;abs 0xa022
    a014:	8b 43 04 00 	mov	#0,	4(r11)	;r3 As==00, 0x0004(r11)
    a018:	8b 43 06 00 	mov	#0,	6(r11)	;r3 As==00, 0x0006(r11)
    a01c:	8b 43 02 00 	mov	#0,	2(r11)	;r3 As==00, 0x0002(r11)
    a020:	ef 3f       	jmp	$-32     	;abs 0xa000
    a022:	0f 43       	clr	r15		
    a024:	6c 93       	cmp.b	#2,	r12	;r3 As==10
    a026:	4c 24       	jz	$+154    	;abs 0xa0c0
    a028:	0f 93       	tst	r15		
    a02a:	03 24       	jz	$+8      	;abs 0xa032
    a02c:	eb 42 00 00 	mov.b	#4,	0(r11)	;r2 As==10, 0x0000(r11)
    a030:	e7 3f       	jmp	$-48     	;abs 0xa000
    a032:	1d 4b 02 00 	mov	2(r11),	r13	;0x0002(r11)
    a036:	1d 8e 02 00 	sub	2(r14),	r13	;0x0002(r14)
    a03a:	8b 4d 02 00 	mov	r13,	2(r11)	;0x0002(r11)
    a03e:	19 4b 04 00 	mov	4(r11),	r9	;0x0004(r11)
    a042:	1a 4b 06 00 	mov	6(r11),	r10	;0x0006(r11)
    a046:	17 4e 04 00 	mov	4(r14),	r7	;0x0004(r14)
    a04a:	18 4e 06 00 	mov	6(r14),	r8	;0x0006(r14)
    a04e:	0e 49       	mov	r9,	r14	
    a050:	0f 4a       	mov	r10,	r15	
    a052:	0e 87       	sub	r7,	r14	
    a054:	0f 78       	subc	r8,	r15	
    a056:	05 2c       	jc	$+12     	;abs 0xa062
    a058:	09 59       	rla	r9		
    a05a:	0a 6a       	rlc	r10		
    a05c:	3d 53       	add	#-1,	r13	;r3 As==11
    a05e:	8b 4d 02 00 	mov	r13,	2(r11)	;0x0002(r11)
    a062:	0e 43       	clr	r14		
    a064:	3f 40 00 40 	mov	#16384,	r15	;#0x4000
    a068:	05 43       	clr	r5		
    a06a:	06 43       	clr	r6		
    a06c:	0c 49       	mov	r9,	r12	
    a06e:	0d 4a       	mov	r10,	r13	
    a070:	0c 87       	sub	r7,	r12	
    a072:	0d 78       	subc	r8,	r13	
    a074:	04 28       	jnc	$+10     	;abs 0xa07e
    a076:	05 de       	bis	r14,	r5	
    a078:	06 df       	bis	r15,	r6	
    a07a:	09 87       	sub	r7,	r9	
    a07c:	0a 78       	subc	r8,	r10	
    a07e:	12 c3       	clrc			
    a080:	0f 10       	rrc	r15		
    a082:	0e 10       	rrc	r14		
    a084:	09 59       	rla	r9		
    a086:	0a 6a       	rlc	r10		
    a088:	0e 93       	tst	r14		
    a08a:	f0 23       	jnz	$-30     	;abs 0xa06c
    a08c:	0f 93       	tst	r15		
    a08e:	ee 23       	jnz	$-34     	;abs 0xa06c
    a090:	0e 45       	mov	r5,	r14	
    a092:	0f 46       	mov	r6,	r15	
    a094:	3e f0 7f 00 	and	#127,	r14	;#0x007f
    a098:	0f f3       	and	#0,	r15	;r3 As==00
    a09a:	3e 90 40 00 	cmp	#64,	r14	;#0x0040
    a09e:	02 20       	jnz	$+6      	;abs 0xa0a4
    a0a0:	0f 93       	tst	r15		
    a0a2:	05 24       	jz	$+12     	;abs 0xa0ae
    a0a4:	8b 45 04 00 	mov	r5,	4(r11)	;0x0004(r11)
    a0a8:	8b 46 06 00 	mov	r6,	6(r11)	;0x0006(r11)
    a0ac:	a9 3f       	jmp	$-172    	;abs 0xa000
    a0ae:	45 93       	tst.b	r5		
    a0b0:	03 38       	jl	$+8      	;abs 0xa0b8
    a0b2:	0a d9       	bis	r9,	r10	
    a0b4:	0a 93       	tst	r10		
    a0b6:	f6 27       	jz	$-18     	;abs 0xa0a4
    a0b8:	35 50 40 00 	add	#64,	r5	;#0x0040
    a0bc:	06 63       	adc	r6		
    a0be:	f2 3f       	jmp	$-26     	;abs 0xa0a4
    a0c0:	1f 43       	mov	#1,	r15	;r3 As==01
    a0c2:	b2 3f       	jmp	$-154    	;abs 0xa028
    a0c4:	1f 43       	mov	#1,	r15	;r3 As==01
    a0c6:	a4 3f       	jmp	$-182    	;abs 0xa010
    a0c8:	1f 43       	mov	#1,	r15	;r3 As==01
    a0ca:	96 3f       	jmp	$-210    	;abs 0x9ff8
    a0cc:	1f 43       	mov	#1,	r15	;r3 As==01
    a0ce:	8f 3f       	jmp	$-224    	;abs 0x9fee
    a0d0:	0f 4e       	mov	r14,	r15	
    a0d2:	35 41       	pop	r5		
    a0d4:	36 41       	pop	r6		
    a0d6:	37 41       	pop	r7		
    a0d8:	38 41       	pop	r8		
    a0da:	39 41       	pop	r9		
    a0dc:	3a 41       	pop	r10		
    a0de:	3b 41       	pop	r11		
    a0e0:	30 41       	ret			

0000a0e2 <__gtsf2>:
    a0e2:	0b 12       	push	r11		
    a0e4:	31 80 18 00 	sub	#24,	r1	;#0x0018
    a0e8:	81 4e 10 00 	mov	r14,	16(r1)	;0x0010(r1)
    a0ec:	81 4f 12 00 	mov	r15,	18(r1)	;0x0012(r1)
    a0f0:	81 4c 14 00 	mov	r12,	20(r1)	;0x0014(r1)
    a0f4:	81 4d 16 00 	mov	r13,	22(r1)	;0x0016(r1)
    a0f8:	0e 41       	mov	r1,	r14	
    a0fa:	0f 41       	mov	r1,	r15	
    a0fc:	3f 50 10 00 	add	#16,	r15	;#0x0010
    a100:	b0 12 50 a5 	call	#0xa550	
    a104:	0b 41       	mov	r1,	r11	
    a106:	3b 52       	add	#8,	r11	;r2 As==11
    a108:	0e 4b       	mov	r11,	r14	
    a10a:	0f 41       	mov	r1,	r15	
    a10c:	3f 50 14 00 	add	#20,	r15	;#0x0014
    a110:	b0 12 50 a5 	call	#0xa550	
    a114:	0f 43       	clr	r15		
    a116:	e1 93 00 00 	cmp.b	#2,	0(r1)	;r3 As==10, 0x0000(r1)
    a11a:	01 2c       	jc	$+4      	;abs 0xa11e
    a11c:	1f 43       	mov	#1,	r15	;r3 As==01
    a11e:	0f 93       	tst	r15		
    a120:	07 20       	jnz	$+16     	;abs 0xa130
    a122:	0f 43       	clr	r15		
    a124:	e1 93 08 00 	cmp.b	#2,	8(r1)	;r3 As==10, 0x0008(r1)
    a128:	01 2c       	jc	$+4      	;abs 0xa12c
    a12a:	1f 43       	mov	#1,	r15	;r3 As==01
    a12c:	0f 93       	tst	r15		
    a12e:	02 24       	jz	$+6      	;abs 0xa134
    a130:	3f 43       	mov	#-1,	r15	;r3 As==11
    a132:	04 3c       	jmp	$+10     	;abs 0xa13c
    a134:	0e 4b       	mov	r11,	r14	
    a136:	0f 41       	mov	r1,	r15	
    a138:	b0 12 46 a6 	call	#0xa646	
    a13c:	31 50 18 00 	add	#24,	r1	;#0x0018
    a140:	3b 41       	pop	r11		
    a142:	30 41       	ret			

0000a144 <__gesf2>:
    a144:	0b 12       	push	r11		
    a146:	31 80 18 00 	sub	#24,	r1	;#0x0018
    a14a:	81 4e 10 00 	mov	r14,	16(r1)	;0x0010(r1)
    a14e:	81 4f 12 00 	mov	r15,	18(r1)	;0x0012(r1)
    a152:	81 4c 14 00 	mov	r12,	20(r1)	;0x0014(r1)
    a156:	81 4d 16 00 	mov	r13,	22(r1)	;0x0016(r1)
    a15a:	0e 41       	mov	r1,	r14	
    a15c:	0f 41       	mov	r1,	r15	
    a15e:	3f 50 10 00 	add	#16,	r15	;#0x0010
    a162:	b0 12 50 a5 	call	#0xa550	
    a166:	0b 41       	mov	r1,	r11	
    a168:	3b 52       	add	#8,	r11	;r2 As==11
    a16a:	0e 4b       	mov	r11,	r14	
    a16c:	0f 41       	mov	r1,	r15	
    a16e:	3f 50 14 00 	add	#20,	r15	;#0x0014
    a172:	b0 12 50 a5 	call	#0xa550	
    a176:	0f 43       	clr	r15		
    a178:	e1 93 00 00 	cmp.b	#2,	0(r1)	;r3 As==10, 0x0000(r1)
    a17c:	01 2c       	jc	$+4      	;abs 0xa180
    a17e:	1f 43       	mov	#1,	r15	;r3 As==01
    a180:	0f 93       	tst	r15		
    a182:	07 20       	jnz	$+16     	;abs 0xa192
    a184:	0f 43       	clr	r15		
    a186:	e1 93 08 00 	cmp.b	#2,	8(r1)	;r3 As==10, 0x0008(r1)
    a18a:	01 2c       	jc	$+4      	;abs 0xa18e
    a18c:	1f 43       	mov	#1,	r15	;r3 As==01
    a18e:	0f 93       	tst	r15		
    a190:	02 24       	jz	$+6      	;abs 0xa196
    a192:	3f 43       	mov	#-1,	r15	;r3 As==11
    a194:	04 3c       	jmp	$+10     	;abs 0xa19e
    a196:	0e 4b       	mov	r11,	r14	
    a198:	0f 41       	mov	r1,	r15	
    a19a:	b0 12 46 a6 	call	#0xa646	
    a19e:	31 50 18 00 	add	#24,	r1	;#0x0018
    a1a2:	3b 41       	pop	r11		
    a1a4:	30 41       	ret			

0000a1a6 <__ltsf2>:
    a1a6:	0b 12       	push	r11		
    a1a8:	31 80 18 00 	sub	#24,	r1	;#0x0018
    a1ac:	81 4e 10 00 	mov	r14,	16(r1)	;0x0010(r1)
    a1b0:	81 4f 12 00 	mov	r15,	18(r1)	;0x0012(r1)
    a1b4:	81 4c 14 00 	mov	r12,	20(r1)	;0x0014(r1)
    a1b8:	81 4d 16 00 	mov	r13,	22(r1)	;0x0016(r1)
    a1bc:	0e 41       	mov	r1,	r14	
    a1be:	0f 41       	mov	r1,	r15	
    a1c0:	3f 50 10 00 	add	#16,	r15	;#0x0010
    a1c4:	b0 12 50 a5 	call	#0xa550	
    a1c8:	0b 41       	mov	r1,	r11	
    a1ca:	3b 52       	add	#8,	r11	;r2 As==11
    a1cc:	0e 4b       	mov	r11,	r14	
    a1ce:	0f 41       	mov	r1,	r15	
    a1d0:	3f 50 14 00 	add	#20,	r15	;#0x0014
    a1d4:	b0 12 50 a5 	call	#0xa550	
    a1d8:	0f 43       	clr	r15		
    a1da:	e1 93 00 00 	cmp.b	#2,	0(r1)	;r3 As==10, 0x0000(r1)
    a1de:	01 2c       	jc	$+4      	;abs 0xa1e2
    a1e0:	1f 43       	mov	#1,	r15	;r3 As==01
    a1e2:	0f 93       	tst	r15		
    a1e4:	07 20       	jnz	$+16     	;abs 0xa1f4
    a1e6:	0f 43       	clr	r15		
    a1e8:	e1 93 08 00 	cmp.b	#2,	8(r1)	;r3 As==10, 0x0008(r1)
    a1ec:	01 2c       	jc	$+4      	;abs 0xa1f0
    a1ee:	1f 43       	mov	#1,	r15	;r3 As==01
    a1f0:	0f 93       	tst	r15		
    a1f2:	02 24       	jz	$+6      	;abs 0xa1f8
    a1f4:	1f 43       	mov	#1,	r15	;r3 As==01
    a1f6:	04 3c       	jmp	$+10     	;abs 0xa200
    a1f8:	0e 4b       	mov	r11,	r14	
    a1fa:	0f 41       	mov	r1,	r15	
    a1fc:	b0 12 46 a6 	call	#0xa646	
    a200:	31 50 18 00 	add	#24,	r1	;#0x0018
    a204:	3b 41       	pop	r11		
    a206:	30 41       	ret			

0000a208 <__lesf2>:
    a208:	0b 12       	push	r11		
    a20a:	31 80 18 00 	sub	#24,	r1	;#0x0018
    a20e:	81 4e 10 00 	mov	r14,	16(r1)	;0x0010(r1)
    a212:	81 4f 12 00 	mov	r15,	18(r1)	;0x0012(r1)
    a216:	81 4c 14 00 	mov	r12,	20(r1)	;0x0014(r1)
    a21a:	81 4d 16 00 	mov	r13,	22(r1)	;0x0016(r1)
    a21e:	0e 41       	mov	r1,	r14	
    a220:	0f 41       	mov	r1,	r15	
    a222:	3f 50 10 00 	add	#16,	r15	;#0x0010
    a226:	b0 12 50 a5 	call	#0xa550	
    a22a:	0b 41       	mov	r1,	r11	
    a22c:	3b 52       	add	#8,	r11	;r2 As==11
    a22e:	0e 4b       	mov	r11,	r14	
    a230:	0f 41       	mov	r1,	r15	
    a232:	3f 50 14 00 	add	#20,	r15	;#0x0014
    a236:	b0 12 50 a5 	call	#0xa550	
    a23a:	0f 43       	clr	r15		
    a23c:	e1 93 00 00 	cmp.b	#2,	0(r1)	;r3 As==10, 0x0000(r1)
    a240:	01 2c       	jc	$+4      	;abs 0xa244
    a242:	1f 43       	mov	#1,	r15	;r3 As==01
    a244:	0f 93       	tst	r15		
    a246:	07 20       	jnz	$+16     	;abs 0xa256
    a248:	0f 43       	clr	r15		
    a24a:	e1 93 08 00 	cmp.b	#2,	8(r1)	;r3 As==10, 0x0008(r1)
    a24e:	01 2c       	jc	$+4      	;abs 0xa252
    a250:	1f 43       	mov	#1,	r15	;r3 As==01
    a252:	0f 93       	tst	r15		
    a254:	02 24       	jz	$+6      	;abs 0xa25a
    a256:	1f 43       	mov	#1,	r15	;r3 As==01
    a258:	04 3c       	jmp	$+10     	;abs 0xa262
    a25a:	0e 4b       	mov	r11,	r14	
    a25c:	0f 41       	mov	r1,	r15	
    a25e:	b0 12 46 a6 	call	#0xa646	
    a262:	31 50 18 00 	add	#24,	r1	;#0x0018
    a266:	3b 41       	pop	r11		
    a268:	30 41       	ret			

0000a26a <__floatsisf>:
    a26a:	0b 12       	push	r11		
    a26c:	31 82       	sub	#8,	r1	;r2 As==11
    a26e:	0d 4e       	mov	r14,	r13	
    a270:	0e 4f       	mov	r15,	r14	
    a272:	f1 40 03 00 	mov.b	#3,	0(r1)	;#0x0003, 0x0000(r1)
    a276:	00 00 
    a278:	0f 4e       	mov	r14,	r15	
    a27a:	0f 5f       	rla	r15		
    a27c:	0f 43       	clr	r15		
    a27e:	0f 6f       	rlc	r15		
    a280:	c1 4f 01 00 	mov.b	r15,	1(r1)	;0x0001(r1)
    a284:	0d 93       	tst	r13		
    a286:	08 20       	jnz	$+18     	;abs 0xa298
    a288:	0e 93       	tst	r14		
    a28a:	06 20       	jnz	$+14     	;abs 0xa298
    a28c:	e1 43 00 00 	mov.b	#2,	0(r1)	;r3 As==10, 0x0000(r1)
    a290:	0f 41       	mov	r1,	r15	
    a292:	b0 12 a0 a3 	call	#0xa3a0	
    a296:	2f 3c       	jmp	$+96     	;abs 0xa2f6
    a298:	b1 40 1e 00 	mov	#30,	2(r1)	;#0x001e, 0x0002(r1)
    a29c:	02 00 
    a29e:	4f 93       	tst.b	r15		
    a2a0:	09 24       	jz	$+20     	;abs 0xa2b4
    a2a2:	0d 93       	tst	r13		
    a2a4:	03 20       	jnz	$+8      	;abs 0xa2ac
    a2a6:	3e 90 00 80 	cmp	#-32768,r14	;#0x8000
    a2aa:	22 24       	jz	$+70     	;abs 0xa2f0
    a2ac:	3d e3       	inv	r13		
    a2ae:	3e e3       	inv	r14		
    a2b0:	1d 53       	inc	r13		
    a2b2:	0e 63       	adc	r14		
    a2b4:	81 4d 04 00 	mov	r13,	4(r1)	;0x0004(r1)
    a2b8:	81 4e 06 00 	mov	r14,	6(r1)	;0x0006(r1)
    a2bc:	1c 41 04 00 	mov	4(r1),	r12	;0x0004(r1)
    a2c0:	1d 41 06 00 	mov	6(r1),	r13	;0x0006(r1)
    a2c4:	3d 90 00 40 	cmp	#16384,	r13	;#0x4000
    a2c8:	e3 2f       	jc	$-56     	;abs 0xa290
    a2ca:	1b 41 02 00 	mov	2(r1),	r11	;0x0002(r1)
    a2ce:	0e 4c       	mov	r12,	r14	
    a2d0:	0f 4d       	mov	r13,	r15	
    a2d2:	0e 5e       	rla	r14		
    a2d4:	0f 6f       	rlc	r15		
    a2d6:	3b 53       	add	#-1,	r11	;r3 As==11
    a2d8:	0c 4e       	mov	r14,	r12	
    a2da:	0d 4f       	mov	r15,	r13	
    a2dc:	3f 90 00 40 	cmp	#16384,	r15	;#0x4000
    a2e0:	f6 2b       	jnc	$-18     	;abs 0xa2ce
    a2e2:	81 4b 02 00 	mov	r11,	2(r1)	;0x0002(r1)
    a2e6:	81 4e 04 00 	mov	r14,	4(r1)	;0x0004(r1)
    a2ea:	81 4f 06 00 	mov	r15,	6(r1)	;0x0006(r1)
    a2ee:	d0 3f       	jmp	$-94     	;abs 0xa290
    a2f0:	0e 43       	clr	r14		
    a2f2:	3f 40 00 cf 	mov	#-12544,r15	;#0xcf00
    a2f6:	31 52       	add	#8,	r1	;r2 As==11
    a2f8:	3b 41       	pop	r11		
    a2fa:	30 41       	ret			

0000a2fc <__fixsfsi>:
    a2fc:	31 80 0c 00 	sub	#12,	r1	;#0x000c
    a300:	81 4e 08 00 	mov	r14,	8(r1)	;0x0008(r1)
    a304:	81 4f 0a 00 	mov	r15,	10(r1)	;0x000a(r1)
    a308:	0e 41       	mov	r1,	r14	
    a30a:	0f 41       	mov	r1,	r15	
    a30c:	3f 52       	add	#8,	r15	;r2 As==11
    a30e:	b0 12 50 a5 	call	#0xa550	
    a312:	0e 43       	clr	r14		
    a314:	6f 41       	mov.b	@r1,	r15	
    a316:	6f 93       	cmp.b	#2,	r15	;r3 As==10
    a318:	3a 24       	jz	$+118    	;abs 0xa38e
    a31a:	0e 93       	tst	r14		
    a31c:	33 20       	jnz	$+104    	;abs 0xa384
    a31e:	0e 43       	clr	r14		
    a320:	6f 93       	cmp.b	#2,	r15	;r3 As==10
    a322:	01 2c       	jc	$+4      	;abs 0xa326
    a324:	1e 43       	mov	#1,	r14	;r3 As==01
    a326:	0e 93       	tst	r14		
    a328:	2d 20       	jnz	$+92     	;abs 0xa384
    a32a:	0e 43       	clr	r14		
    a32c:	6f 92       	cmp.b	#4,	r15	;r2 As==10
    a32e:	2d 24       	jz	$+92     	;abs 0xa38a
    a330:	0e 93       	tst	r14		
    a332:	07 20       	jnz	$+16     	;abs 0xa342
    a334:	1d 41 02 00 	mov	2(r1),	r13	;0x0002(r1)
    a338:	0d 93       	tst	r13		
    a33a:	24 38       	jl	$+74     	;abs 0xa384
    a33c:	3d 90 1f 00 	cmp	#31,	r13	;#0x001f
    a340:	0b 38       	jl	$+24     	;abs 0xa358
    a342:	c1 93 01 00 	tst.b	1(r1)		;0x0001(r1)
    a346:	04 24       	jz	$+10     	;abs 0xa350
    a348:	0e 43       	clr	r14		
    a34a:	3f 40 00 80 	mov	#-32768,r15	;#0x8000
    a34e:	21 3c       	jmp	$+68     	;abs 0xa392
    a350:	3e 43       	mov	#-1,	r14	;r3 As==11
    a352:	3f 40 ff 7f 	mov	#32767,	r15	;#0x7fff
    a356:	1d 3c       	jmp	$+60     	;abs 0xa392
    a358:	3c 40 1e 00 	mov	#30,	r12	;#0x001e
    a35c:	1e 41 04 00 	mov	4(r1),	r14	;0x0004(r1)
    a360:	1f 41 06 00 	mov	6(r1),	r15	;0x0006(r1)
    a364:	0c 8d       	sub	r13,	r12	
    a366:	0c 93       	tst	r12		
    a368:	05 24       	jz	$+12     	;abs 0xa374
    a36a:	12 c3       	clrc			
    a36c:	0f 10       	rrc	r15		
    a36e:	0e 10       	rrc	r14		
    a370:	1c 83       	dec	r12		
    a372:	fb 23       	jnz	$-8      	;abs 0xa36a
    a374:	c1 93 01 00 	tst.b	1(r1)		;0x0001(r1)
    a378:	0c 24       	jz	$+26     	;abs 0xa392
    a37a:	3e e3       	inv	r14		
    a37c:	3f e3       	inv	r15		
    a37e:	1e 53       	inc	r14		
    a380:	0f 63       	adc	r15		
    a382:	07 3c       	jmp	$+16     	;abs 0xa392
    a384:	0e 43       	clr	r14		
    a386:	0f 43       	clr	r15		
    a388:	04 3c       	jmp	$+10     	;abs 0xa392
    a38a:	1e 43       	mov	#1,	r14	;r3 As==01
    a38c:	d1 3f       	jmp	$-92     	;abs 0xa330
    a38e:	1e 43       	mov	#1,	r14	;r3 As==01
    a390:	c4 3f       	jmp	$-118    	;abs 0xa31a
    a392:	31 50 0c 00 	add	#12,	r1	;#0x000c
    a396:	30 41       	ret			

0000a398 <__thenan_sf>:
	...

0000a3a0 <__pack_f>:
    a3a0:	0b 12       	push	r11		
    a3a2:	0a 12       	push	r10		
    a3a4:	09 12       	push	r9		
    a3a6:	08 12       	push	r8		
    a3a8:	07 12       	push	r7		
    a3aa:	21 82       	sub	#4,	r1	;r2 As==10
    a3ac:	1c 4f 04 00 	mov	4(r15),	r12	;0x0004(r15)
    a3b0:	1d 4f 06 00 	mov	6(r15),	r13	;0x0006(r15)
    a3b4:	59 4f 01 00 	mov.b	1(r15),	r9	;0x0001(r15)
    a3b8:	0a 43       	clr	r10		
    a3ba:	0b 43       	clr	r11		
    a3bc:	6e 4f       	mov.b	@r15,	r14	
    a3be:	6e 93       	cmp.b	#2,	r14	;r3 As==10
    a3c0:	01 2c       	jc	$+4      	;abs 0xa3c4
    a3c2:	1b 43       	mov	#1,	r11	;r3 As==01
    a3c4:	0b 93       	tst	r11		
    a3c6:	05 24       	jz	$+12     	;abs 0xa3d2
    a3c8:	3a 40 ff 00 	mov	#255,	r10	;#0x00ff
    a3cc:	3d d0 10 00 	bis	#16,	r13	;#0x0010
    a3d0:	8e 3c       	jmp	$+286    	;abs 0xa4ee
    a3d2:	0b 43       	clr	r11		
    a3d4:	6e 92       	cmp.b	#4,	r14	;r2 As==10
    a3d6:	89 24       	jz	$+276    	;abs 0xa4ea
    a3d8:	0b 93       	tst	r11		
    a3da:	62 20       	jnz	$+198    	;abs 0xa4a0
    a3dc:	0b 43       	clr	r11		
    a3de:	6e 93       	cmp.b	#2,	r14	;r3 As==10
    a3e0:	82 24       	jz	$+262    	;abs 0xa4e6
    a3e2:	0b 93       	tst	r11		
    a3e4:	5f 20       	jnz	$+192    	;abs 0xa4a4
    a3e6:	0c 93       	tst	r12		
    a3e8:	02 20       	jnz	$+6      	;abs 0xa3ee
    a3ea:	0d 93       	tst	r13		
    a3ec:	80 24       	jz	$+258    	;abs 0xa4ee
    a3ee:	1f 4f 02 00 	mov	2(r15),	r15	;0x0002(r15)
    a3f2:	3f 90 82 ff 	cmp	#-126,	r15	;#0xff82
    a3f6:	51 34       	jge	$+164    	;abs 0xa49a
    a3f8:	38 40 82 ff 	mov	#-126,	r8	;#0xff82
    a3fc:	08 8f       	sub	r15,	r8	
    a3fe:	38 90 1a 00 	cmp	#26,	r8	;#0x001a
    a402:	29 38       	jl	$+84     	;abs 0xa456
    a404:	0c 43       	clr	r12		
    a406:	0d 43       	clr	r13		
    a408:	0e 4c       	mov	r12,	r14	
    a40a:	0f 4d       	mov	r13,	r15	
    a40c:	3e f0 7f 00 	and	#127,	r14	;#0x007f
    a410:	0f f3       	and	#0,	r15	;r3 As==00
    a412:	3e 90 40 00 	cmp	#64,	r14	;#0x0040
    a416:	02 20       	jnz	$+6      	;abs 0xa41c
    a418:	0f 93       	tst	r15		
    a41a:	17 24       	jz	$+48     	;abs 0xa44a
    a41c:	3c 50 3f 00 	add	#63,	r12	;#0x003f
    a420:	0d 63       	adc	r13		
    a422:	3d 90 00 40 	cmp	#16384,	r13	;#0x4000
    a426:	01 28       	jnc	$+4      	;abs 0xa42a
    a428:	1a 43       	mov	#1,	r10	;r3 As==01
    a42a:	12 c3       	clrc			
    a42c:	0d 10       	rrc	r13		
    a42e:	0c 10       	rrc	r12		
    a430:	0d 11       	rra	r13		
    a432:	0c 10       	rrc	r12		
    a434:	0d 11       	rra	r13		
    a436:	0c 10       	rrc	r12		
    a438:	0d 11       	rra	r13		
    a43a:	0c 10       	rrc	r12		
    a43c:	0d 11       	rra	r13		
    a43e:	0c 10       	rrc	r12		
    a440:	0d 11       	rra	r13		
    a442:	0c 10       	rrc	r12		
    a444:	0d 11       	rra	r13		
    a446:	0c 10       	rrc	r12		
    a448:	52 3c       	jmp	$+166    	;abs 0xa4ee
    a44a:	4c 93       	tst.b	r12		
    a44c:	ea 37       	jge	$-42     	;abs 0xa422
    a44e:	3c 50 40 00 	add	#64,	r12	;#0x0040
    a452:	0d 63       	adc	r13		
    a454:	e6 3f       	jmp	$-50     	;abs 0xa422
    a456:	07 43       	clr	r7		
    a458:	1e 43       	mov	#1,	r14	;r3 As==01
    a45a:	0f 43       	clr	r15		
    a45c:	0b 48       	mov	r8,	r11	
    a45e:	0b 93       	tst	r11		
    a460:	04 24       	jz	$+10     	;abs 0xa46a
    a462:	0e 5e       	rla	r14		
    a464:	0f 6f       	rlc	r15		
    a466:	1b 83       	dec	r11		
    a468:	fc 23       	jnz	$-6      	;abs 0xa462
    a46a:	3e 53       	add	#-1,	r14	;r3 As==11
    a46c:	3f 63       	addc	#-1,	r15	;r3 As==11
    a46e:	0e fc       	and	r12,	r14	
    a470:	0f fd       	and	r13,	r15	
    a472:	0f de       	bis	r14,	r15	
    a474:	0f 93       	tst	r15		
    a476:	01 24       	jz	$+4      	;abs 0xa47a
    a478:	17 43       	mov	#1,	r7	;r3 As==01
    a47a:	0f 48       	mov	r8,	r15	
    a47c:	0f 93       	tst	r15		
    a47e:	05 24       	jz	$+12     	;abs 0xa48a
    a480:	12 c3       	clrc			
    a482:	0d 10       	rrc	r13		
    a484:	0c 10       	rrc	r12		
    a486:	1f 83       	dec	r15		
    a488:	fb 23       	jnz	$-8      	;abs 0xa480
    a48a:	0e 47       	mov	r7,	r14	
    a48c:	0f 4e       	mov	r14,	r15	
    a48e:	0f 5f       	rla	r15		
    a490:	0f 7f       	subc	r15,	r15	
    a492:	3f e3       	inv	r15		
    a494:	0c de       	bis	r14,	r12	
    a496:	0d df       	bis	r15,	r13	
    a498:	b7 3f       	jmp	$-144    	;abs 0xa408
    a49a:	3f 90 80 00 	cmp	#128,	r15	;#0x0080
    a49e:	05 38       	jl	$+12     	;abs 0xa4aa
    a4a0:	3a 40 ff 00 	mov	#255,	r10	;#0x00ff
    a4a4:	0c 43       	clr	r12		
    a4a6:	0d 43       	clr	r13		
    a4a8:	22 3c       	jmp	$+70     	;abs 0xa4ee
    a4aa:	0a 4f       	mov	r15,	r10	
    a4ac:	3a 50 7f 00 	add	#127,	r10	;#0x007f
    a4b0:	0e 4c       	mov	r12,	r14	
    a4b2:	0f 4d       	mov	r13,	r15	
    a4b4:	3e f0 7f 00 	and	#127,	r14	;#0x007f
    a4b8:	0f f3       	and	#0,	r15	;r3 As==00
    a4ba:	3e 90 40 00 	cmp	#64,	r14	;#0x0040
    a4be:	02 20       	jnz	$+6      	;abs 0xa4c4
    a4c0:	0f 93       	tst	r15		
    a4c2:	0b 24       	jz	$+24     	;abs 0xa4da
    a4c4:	3c 50 3f 00 	add	#63,	r12	;#0x003f
    a4c8:	0d 63       	adc	r13		
    a4ca:	3d 90 00 80 	cmp	#-32768,r13	;#0x8000
    a4ce:	ad 2b       	jnc	$-164    	;abs 0xa42a
    a4d0:	12 c3       	clrc			
    a4d2:	0d 10       	rrc	r13		
    a4d4:	0c 10       	rrc	r12		
    a4d6:	1a 53       	inc	r10		
    a4d8:	a8 3f       	jmp	$-174    	;abs 0xa42a
    a4da:	4c 93       	tst.b	r12		
    a4dc:	f6 37       	jge	$-18     	;abs 0xa4ca
    a4de:	3c 50 40 00 	add	#64,	r12	;#0x0040
    a4e2:	0d 63       	adc	r13		
    a4e4:	f2 3f       	jmp	$-26     	;abs 0xa4ca
    a4e6:	1b 43       	mov	#1,	r11	;r3 As==01
    a4e8:	7c 3f       	jmp	$-262    	;abs 0xa3e2
    a4ea:	1b 43       	mov	#1,	r11	;r3 As==01
    a4ec:	75 3f       	jmp	$-276    	;abs 0xa3d8
    a4ee:	81 4c 00 00 	mov	r12,	0(r1)	;0x0000(r1)
    a4f2:	4e 4d       	mov.b	r13,	r14	
    a4f4:	7e f0 7f 00 	and.b	#127,	r14	;#0x007f
    a4f8:	5f 41 02 00 	mov.b	2(r1),	r15	;0x0002(r1)
    a4fc:	7f f0 80 ff 	and.b	#-128,	r15	;#0xff80
    a500:	4f de       	bis.b	r14,	r15	
    a502:	c1 4f 02 00 	mov.b	r15,	2(r1)	;0x0002(r1)
    a506:	0f 4a       	mov	r10,	r15	
    a508:	7f f3       	and.b	#-1,	r15	;r3 As==11
    a50a:	0f 5f       	rla	r15		
    a50c:	0f 5f       	rla	r15		
    a50e:	0f 5f       	rla	r15		
    a510:	0f 5f       	rla	r15		
    a512:	0f 5f       	rla	r15		
    a514:	0f 5f       	rla	r15		
    a516:	0f 5f       	rla	r15		
    a518:	1e 41 02 00 	mov	2(r1),	r14	;0x0002(r1)
    a51c:	3e f0 7f 80 	and	#-32641,r14	;#0x807f
    a520:	0e df       	bis	r15,	r14	
    a522:	81 4e 02 00 	mov	r14,	2(r1)	;0x0002(r1)
    a526:	4e 49       	mov.b	r9,	r14	
    a528:	4e 11       	rra.b	r14		
    a52a:	4e 43       	clr.b	r14		
    a52c:	4e 10       	rrc.b	r14		
    a52e:	5f 41 03 00 	mov.b	3(r1),	r15	;0x0003(r1)
    a532:	7f f0 7f 00 	and.b	#127,	r15	;#0x007f
    a536:	4f de       	bis.b	r14,	r15	
    a538:	c1 4f 03 00 	mov.b	r15,	3(r1)	;0x0003(r1)
    a53c:	2e 41       	mov	@r1,	r14	
    a53e:	1f 41 02 00 	mov	2(r1),	r15	;0x0002(r1)
    a542:	21 52       	add	#4,	r1	;r2 As==10
    a544:	37 41       	pop	r7		
    a546:	38 41       	pop	r8		
    a548:	39 41       	pop	r9		
    a54a:	3a 41       	pop	r10		
    a54c:	3b 41       	pop	r11		
    a54e:	30 41       	ret			

0000a550 <__unpack_f>:
    a550:	0b 12       	push	r11		
    a552:	0b 4e       	mov	r14,	r11	
    a554:	2c 4f       	mov	@r15,	r12	
    a556:	5d 4f 02 00 	mov.b	2(r15),	r13	;0x0002(r15)
    a55a:	3d f0 7f 00 	and	#127,	r13	;#0x007f
    a55e:	1e 4f 02 00 	mov	2(r15),	r14	;0x0002(r15)
    a562:	12 c3       	clrc			
    a564:	0e 10       	rrc	r14		
    a566:	0e 11       	rra	r14		
    a568:	0e 11       	rra	r14		
    a56a:	0e 11       	rra	r14		
    a56c:	0e 11       	rra	r14		
    a56e:	0e 11       	rra	r14		
    a570:	0e 11       	rra	r14		
    a572:	7e f3       	and.b	#-1,	r14	;r3 As==11
    a574:	ff b0 80 00 	bit.b	#128,	3(r15)	;#0x0080, 0x0003(r15)
    a578:	03 00 
    a57a:	4f 43       	clr.b	r15		
    a57c:	4f 63       	adc.b	r15		
    a57e:	cb 4f 01 00 	mov.b	r15,	1(r11)	;0x0001(r11)
    a582:	0e 93       	tst	r14		
    a584:	2d 20       	jnz	$+92     	;abs 0xa5e0
    a586:	0c 93       	tst	r12		
    a588:	05 20       	jnz	$+12     	;abs 0xa594
    a58a:	0d 93       	tst	r13		
    a58c:	03 20       	jnz	$+8      	;abs 0xa594
    a58e:	eb 43 00 00 	mov.b	#2,	0(r11)	;r3 As==10, 0x0000(r11)
    a592:	57 3c       	jmp	$+176    	;abs 0xa642
    a594:	bb 40 82 ff 	mov	#-126,	2(r11)	;#0xff82, 0x0002(r11)
    a598:	02 00 
    a59a:	0c 5c       	rla	r12		
    a59c:	0d 6d       	rlc	r13		
    a59e:	0c 5c       	rla	r12		
    a5a0:	0d 6d       	rlc	r13		
    a5a2:	0c 5c       	rla	r12		
    a5a4:	0d 6d       	rlc	r13		
    a5a6:	0c 5c       	rla	r12		
    a5a8:	0d 6d       	rlc	r13		
    a5aa:	0c 5c       	rla	r12		
    a5ac:	0d 6d       	rlc	r13		
    a5ae:	0c 5c       	rla	r12		
    a5b0:	0d 6d       	rlc	r13		
    a5b2:	0c 5c       	rla	r12		
    a5b4:	0d 6d       	rlc	r13		
    a5b6:	fb 40 03 00 	mov.b	#3,	0(r11)	;#0x0003, 0x0000(r11)
    a5ba:	00 00 
    a5bc:	3d 90 00 40 	cmp	#16384,	r13	;#0x4000
    a5c0:	0a 2c       	jc	$+22     	;abs 0xa5d6
    a5c2:	3f 40 82 ff 	mov	#-126,	r15	;#0xff82
    a5c6:	0c 5c       	rla	r12		
    a5c8:	0d 6d       	rlc	r13		
    a5ca:	3f 53       	add	#-1,	r15	;r3 As==11
    a5cc:	3d 90 00 40 	cmp	#16384,	r13	;#0x4000
    a5d0:	fa 2b       	jnc	$-10     	;abs 0xa5c6
    a5d2:	8b 4f 02 00 	mov	r15,	2(r11)	;0x0002(r11)
    a5d6:	8b 4c 04 00 	mov	r12,	4(r11)	;0x0004(r11)
    a5da:	8b 4d 06 00 	mov	r13,	6(r11)	;0x0006(r11)
    a5de:	31 3c       	jmp	$+100    	;abs 0xa642
    a5e0:	3e 90 ff 00 	cmp	#255,	r14	;#0x00ff
    a5e4:	1e 24       	jz	$+62     	;abs 0xa622
    a5e6:	3e 50 81 ff 	add	#-127,	r14	;#0xff81
    a5ea:	8b 4e 02 00 	mov	r14,	2(r11)	;0x0002(r11)
    a5ee:	fb 40 03 00 	mov.b	#3,	0(r11)	;#0x0003, 0x0000(r11)
    a5f2:	00 00 
    a5f4:	0e 4c       	mov	r12,	r14	
    a5f6:	0f 4d       	mov	r13,	r15	
    a5f8:	0e 5e       	rla	r14		
    a5fa:	0f 6f       	rlc	r15		
    a5fc:	0e 5e       	rla	r14		
    a5fe:	0f 6f       	rlc	r15		
    a600:	0e 5e       	rla	r14		
    a602:	0f 6f       	rlc	r15		
    a604:	0e 5e       	rla	r14		
    a606:	0f 6f       	rlc	r15		
    a608:	0e 5e       	rla	r14		
    a60a:	0f 6f       	rlc	r15		
    a60c:	0e 5e       	rla	r14		
    a60e:	0f 6f       	rlc	r15		
    a610:	0e 5e       	rla	r14		
    a612:	0f 6f       	rlc	r15		
    a614:	3f d0 00 40 	bis	#16384,	r15	;#0x4000
    a618:	8b 4e 04 00 	mov	r14,	4(r11)	;0x0004(r11)
    a61c:	8b 4f 06 00 	mov	r15,	6(r11)	;0x0006(r11)
    a620:	10 3c       	jmp	$+34     	;abs 0xa642
    a622:	0c 93       	tst	r12		
    a624:	05 20       	jnz	$+12     	;abs 0xa630
    a626:	0d 93       	tst	r13		
    a628:	03 20       	jnz	$+8      	;abs 0xa630
    a62a:	eb 42 00 00 	mov.b	#4,	0(r11)	;r2 As==10, 0x0000(r11)
    a62e:	09 3c       	jmp	$+20     	;abs 0xa642
    a630:	3d b0 10 00 	bit	#16,	r13	;#0x0010
    a634:	03 24       	jz	$+8      	;abs 0xa63c
    a636:	db 43 00 00 	mov.b	#1,	0(r11)	;r3 As==01, 0x0000(r11)
    a63a:	cd 3f       	jmp	$-100    	;abs 0xa5d6
    a63c:	cb 43 00 00 	mov.b	#0,	0(r11)	;r3 As==00, 0x0000(r11)
    a640:	ca 3f       	jmp	$-106    	;abs 0xa5d6
    a642:	3b 41       	pop	r11		
    a644:	30 41       	ret			

0000a646 <__fpcmp_parts_f>:
    a646:	0b 12       	push	r11		
    a648:	0a 12       	push	r10		
    a64a:	09 12       	push	r9		
    a64c:	08 12       	push	r8		
    a64e:	0d 43       	clr	r13		
    a650:	6c 4f       	mov.b	@r15,	r12	
    a652:	6c 93       	cmp.b	#2,	r12	;r3 As==10
    a654:	01 2c       	jc	$+4      	;abs 0xa658
    a656:	1d 43       	mov	#1,	r13	;r3 As==01
    a658:	0d 93       	tst	r13		
    a65a:	07 20       	jnz	$+16     	;abs 0xa66a
    a65c:	0d 43       	clr	r13		
    a65e:	6b 4e       	mov.b	@r14,	r11	
    a660:	6b 93       	cmp.b	#2,	r11	;r3 As==10
    a662:	01 2c       	jc	$+4      	;abs 0xa666
    a664:	1d 43       	mov	#1,	r13	;r3 As==01
    a666:	0d 93       	tst	r13		
    a668:	02 24       	jz	$+6      	;abs 0xa66e
    a66a:	1d 43       	mov	#1,	r13	;r3 As==01
    a66c:	72 3c       	jmp	$+230    	;abs 0xa752
    a66e:	0d 43       	clr	r13		
    a670:	6c 92       	cmp.b	#4,	r12	;r2 As==10
    a672:	6d 24       	jz	$+220    	;abs 0xa74e
    a674:	0d 93       	tst	r13		
    a676:	0b 24       	jz	$+24     	;abs 0xa68e
    a678:	0d 43       	clr	r13		
    a67a:	6b 92       	cmp.b	#4,	r11	;r2 As==10
    a67c:	66 24       	jz	$+206    	;abs 0xa74a
    a67e:	0d 93       	tst	r13		
    a680:	06 24       	jz	$+14     	;abs 0xa68e
    a682:	5d 4e 01 00 	mov.b	1(r14),	r13	;0x0001(r14)
    a686:	5f 4f 01 00 	mov.b	1(r15),	r15	;0x0001(r15)
    a68a:	0d 8f       	sub	r15,	r13	
    a68c:	62 3c       	jmp	$+198    	;abs 0xa752
    a68e:	0d 43       	clr	r13		
    a690:	6c 92       	cmp.b	#4,	r12	;r2 As==10
    a692:	59 24       	jz	$+180    	;abs 0xa746
    a694:	0d 93       	tst	r13		
    a696:	23 20       	jnz	$+72     	;abs 0xa6de
    a698:	0d 43       	clr	r13		
    a69a:	6b 92       	cmp.b	#4,	r11	;r2 As==10
    a69c:	52 24       	jz	$+166    	;abs 0xa742
    a69e:	0d 93       	tst	r13		
    a6a0:	11 20       	jnz	$+36     	;abs 0xa6c4
    a6a2:	0d 43       	clr	r13		
    a6a4:	6c 93       	cmp.b	#2,	r12	;r3 As==10
    a6a6:	4b 24       	jz	$+152    	;abs 0xa73e
    a6a8:	0d 93       	tst	r13		
    a6aa:	07 24       	jz	$+16     	;abs 0xa6ba
    a6ac:	0d 43       	clr	r13		
    a6ae:	6b 93       	cmp.b	#2,	r11	;r3 As==10
    a6b0:	44 24       	jz	$+138    	;abs 0xa73a
    a6b2:	0d 93       	tst	r13		
    a6b4:	02 24       	jz	$+6      	;abs 0xa6ba
    a6b6:	0d 43       	clr	r13		
    a6b8:	4c 3c       	jmp	$+154    	;abs 0xa752
    a6ba:	0d 43       	clr	r13		
    a6bc:	6c 93       	cmp.b	#2,	r12	;r3 As==10
    a6be:	3b 24       	jz	$+120    	;abs 0xa736
    a6c0:	0d 93       	tst	r13		
    a6c2:	08 24       	jz	$+18     	;abs 0xa6d4
    a6c4:	ce 93 01 00 	tst.b	1(r14)		;0x0001(r14)
    a6c8:	03 20       	jnz	$+8      	;abs 0xa6d0
    a6ca:	3f 43       	mov	#-1,	r15	;r3 As==11
    a6cc:	0d 4f       	mov	r15,	r13	
    a6ce:	41 3c       	jmp	$+132    	;abs 0xa752
    a6d0:	1f 43       	mov	#1,	r15	;r3 As==01
    a6d2:	fc 3f       	jmp	$-6      	;abs 0xa6cc
    a6d4:	0d 43       	clr	r13		
    a6d6:	6b 93       	cmp.b	#2,	r11	;r3 As==10
    a6d8:	2c 24       	jz	$+90     	;abs 0xa732
    a6da:	0d 93       	tst	r13		
    a6dc:	04 24       	jz	$+10     	;abs 0xa6e6
    a6de:	cf 93 01 00 	tst.b	1(r15)		;0x0001(r15)
    a6e2:	f3 23       	jnz	$-24     	;abs 0xa6ca
    a6e4:	f5 3f       	jmp	$-20     	;abs 0xa6d0
    a6e6:	5c 4f 01 00 	mov.b	1(r15),	r12	;0x0001(r15)
    a6ea:	5c 9e 01 00 	cmp.b	1(r14),	r12	;0x0001(r14)
    a6ee:	03 24       	jz	$+8      	;abs 0xa6f6
    a6f0:	4c 93       	tst.b	r12		
    a6f2:	eb 23       	jnz	$-40     	;abs 0xa6ca
    a6f4:	ed 3f       	jmp	$-36     	;abs 0xa6d0
    a6f6:	1b 4f 02 00 	mov	2(r15),	r11	;0x0002(r15)
    a6fa:	1d 4e 02 00 	mov	2(r14),	r13	;0x0002(r14)
    a6fe:	0d 9b       	cmp	r11,	r13	
    a700:	f7 3b       	jl	$-16     	;abs 0xa6f0
    a702:	0b 9d       	cmp	r13,	r11	
    a704:	13 38       	jl	$+40     	;abs 0xa72c
    a706:	1a 4f 04 00 	mov	4(r15),	r10	;0x0004(r15)
    a70a:	1b 4f 06 00 	mov	6(r15),	r11	;0x0006(r15)
    a70e:	18 4e 04 00 	mov	4(r14),	r8	;0x0004(r14)
    a712:	19 4e 06 00 	mov	6(r14),	r9	;0x0006(r14)
    a716:	0e 48       	mov	r8,	r14	
    a718:	0f 49       	mov	r9,	r15	
    a71a:	0e 8a       	sub	r10,	r14	
    a71c:	0f 7b       	subc	r11,	r15	
    a71e:	e8 2b       	jnc	$-46     	;abs 0xa6f0
    a720:	0e 4a       	mov	r10,	r14	
    a722:	0f 4b       	mov	r11,	r15	
    a724:	0d 43       	clr	r13		
    a726:	0e 88       	sub	r8,	r14	
    a728:	0f 79       	subc	r9,	r15	
    a72a:	13 2c       	jc	$+40     	;abs 0xa752
    a72c:	4c 93       	tst.b	r12		
    a72e:	cd 27       	jz	$-100    	;abs 0xa6ca
    a730:	cf 3f       	jmp	$-96     	;abs 0xa6d0
    a732:	1d 43       	mov	#1,	r13	;r3 As==01
    a734:	d2 3f       	jmp	$-90     	;abs 0xa6da
    a736:	1d 43       	mov	#1,	r13	;r3 As==01
    a738:	c3 3f       	jmp	$-120    	;abs 0xa6c0
    a73a:	1d 43       	mov	#1,	r13	;r3 As==01
    a73c:	ba 3f       	jmp	$-138    	;abs 0xa6b2
    a73e:	1d 43       	mov	#1,	r13	;r3 As==01
    a740:	b3 3f       	jmp	$-152    	;abs 0xa6a8
    a742:	1d 43       	mov	#1,	r13	;r3 As==01
    a744:	ac 3f       	jmp	$-166    	;abs 0xa69e
    a746:	1d 43       	mov	#1,	r13	;r3 As==01
    a748:	a5 3f       	jmp	$-180    	;abs 0xa694
    a74a:	1d 43       	mov	#1,	r13	;r3 As==01
    a74c:	98 3f       	jmp	$-206    	;abs 0xa67e
    a74e:	1d 43       	mov	#1,	r13	;r3 As==01
    a750:	91 3f       	jmp	$-220    	;abs 0xa674
    a752:	0f 4d       	mov	r13,	r15	
    a754:	38 41       	pop	r8		
    a756:	39 41       	pop	r9		
    a758:	3a 41       	pop	r10		
    a75a:	3b 41       	pop	r11		
    a75c:	30 41       	ret			

0000a75e <__stop_progExec__>:
    a75e:	ff 3f       	jmp	$+0      	;abs 0xa75e
Disassembly of section .vectors:

0000efe0 <InterruptVectors>:
    efe0:	40 80 40 80 40 80 40 80 40 80 12 98 40 80 40 80     @.@.@.@.@...@.@.
    eff0:	40 80 ca 97 40 80 40 80 40 80 0a 97 40 80 10 80     @...@.@.@...@...
